
rtarget:     file format elf64-x86-64


Disassembly of section .init:

0000000000401000 <_init>:
  401000:	48 83 ec 08          	sub    $0x8,%rsp
  401004:	48 8b 05 ed 5f 00 00 	mov    0x5fed(%rip),%rax        # 406ff8 <__gmon_start__>
  40100b:	48 85 c0             	test   %rax,%rax
  40100e:	74 02                	je     401012 <_init+0x12>
  401010:	ff d0                	callq  *%rax
  401012:	48 83 c4 08          	add    $0x8,%rsp
  401016:	c3                   	retq   

Disassembly of section .plt:

0000000000401020 <.plt>:
  401020:	ff 35 e2 5f 00 00    	pushq  0x5fe2(%rip)        # 407008 <_GLOBAL_OFFSET_TABLE_+0x8>
  401026:	ff 25 e4 5f 00 00    	jmpq   *0x5fe4(%rip)        # 407010 <_GLOBAL_OFFSET_TABLE_+0x10>
  40102c:	0f 1f 40 00          	nopl   0x0(%rax)

0000000000401030 <strcasecmp@plt>:
  401030:	ff 25 e2 5f 00 00    	jmpq   *0x5fe2(%rip)        # 407018 <strcasecmp@GLIBC_2.2.5>
  401036:	68 00 00 00 00       	pushq  $0x0
  40103b:	e9 e0 ff ff ff       	jmpq   401020 <.plt>

0000000000401040 <__errno_location@plt>:
  401040:	ff 25 da 5f 00 00    	jmpq   *0x5fda(%rip)        # 407020 <__errno_location@GLIBC_2.2.5>
  401046:	68 01 00 00 00       	pushq  $0x1
  40104b:	e9 d0 ff ff ff       	jmpq   401020 <.plt>

0000000000401050 <srandom@plt>:
  401050:	ff 25 d2 5f 00 00    	jmpq   *0x5fd2(%rip)        # 407028 <srandom@GLIBC_2.2.5>
  401056:	68 02 00 00 00       	pushq  $0x2
  40105b:	e9 c0 ff ff ff       	jmpq   401020 <.plt>

0000000000401060 <strncmp@plt>:
  401060:	ff 25 ca 5f 00 00    	jmpq   *0x5fca(%rip)        # 407030 <strncmp@GLIBC_2.2.5>
  401066:	68 03 00 00 00       	pushq  $0x3
  40106b:	e9 b0 ff ff ff       	jmpq   401020 <.plt>

0000000000401070 <strcpy@plt>:
  401070:	ff 25 c2 5f 00 00    	jmpq   *0x5fc2(%rip)        # 407038 <strcpy@GLIBC_2.2.5>
  401076:	68 04 00 00 00       	pushq  $0x4
  40107b:	e9 a0 ff ff ff       	jmpq   401020 <.plt>

0000000000401080 <puts@plt>:
  401080:	ff 25 ba 5f 00 00    	jmpq   *0x5fba(%rip)        # 407040 <puts@GLIBC_2.2.5>
  401086:	68 05 00 00 00       	pushq  $0x5
  40108b:	e9 90 ff ff ff       	jmpq   401020 <.plt>

0000000000401090 <write@plt>:
  401090:	ff 25 b2 5f 00 00    	jmpq   *0x5fb2(%rip)        # 407048 <write@GLIBC_2.2.5>
  401096:	68 06 00 00 00       	pushq  $0x6
  40109b:	e9 80 ff ff ff       	jmpq   401020 <.plt>

00000000004010a0 <mmap@plt>:
  4010a0:	ff 25 aa 5f 00 00    	jmpq   *0x5faa(%rip)        # 407050 <mmap@GLIBC_2.2.5>
  4010a6:	68 07 00 00 00       	pushq  $0x7
  4010ab:	e9 70 ff ff ff       	jmpq   401020 <.plt>

00000000004010b0 <printf@plt>:
  4010b0:	ff 25 a2 5f 00 00    	jmpq   *0x5fa2(%rip)        # 407058 <printf@GLIBC_2.2.5>
  4010b6:	68 08 00 00 00       	pushq  $0x8
  4010bb:	e9 60 ff ff ff       	jmpq   401020 <.plt>

00000000004010c0 <memset@plt>:
  4010c0:	ff 25 9a 5f 00 00    	jmpq   *0x5f9a(%rip)        # 407060 <memset@GLIBC_2.2.5>
  4010c6:	68 09 00 00 00       	pushq  $0x9
  4010cb:	e9 50 ff ff ff       	jmpq   401020 <.plt>

00000000004010d0 <alarm@plt>:
  4010d0:	ff 25 92 5f 00 00    	jmpq   *0x5f92(%rip)        # 407068 <alarm@GLIBC_2.2.5>
  4010d6:	68 0a 00 00 00       	pushq  $0xa
  4010db:	e9 40 ff ff ff       	jmpq   401020 <.plt>

00000000004010e0 <close@plt>:
  4010e0:	ff 25 8a 5f 00 00    	jmpq   *0x5f8a(%rip)        # 407070 <close@GLIBC_2.2.5>
  4010e6:	68 0b 00 00 00       	pushq  $0xb
  4010eb:	e9 30 ff ff ff       	jmpq   401020 <.plt>

00000000004010f0 <read@plt>:
  4010f0:	ff 25 82 5f 00 00    	jmpq   *0x5f82(%rip)        # 407078 <read@GLIBC_2.2.5>
  4010f6:	68 0c 00 00 00       	pushq  $0xc
  4010fb:	e9 20 ff ff ff       	jmpq   401020 <.plt>

0000000000401100 <signal@plt>:
  401100:	ff 25 7a 5f 00 00    	jmpq   *0x5f7a(%rip)        # 407080 <signal@GLIBC_2.2.5>
  401106:	68 0d 00 00 00       	pushq  $0xd
  40110b:	e9 10 ff ff ff       	jmpq   401020 <.plt>

0000000000401110 <gethostbyname@plt>:
  401110:	ff 25 72 5f 00 00    	jmpq   *0x5f72(%rip)        # 407088 <gethostbyname@GLIBC_2.2.5>
  401116:	68 0e 00 00 00       	pushq  $0xe
  40111b:	e9 00 ff ff ff       	jmpq   401020 <.plt>

0000000000401120 <fprintf@plt>:
  401120:	ff 25 6a 5f 00 00    	jmpq   *0x5f6a(%rip)        # 407090 <fprintf@GLIBC_2.2.5>
  401126:	68 0f 00 00 00       	pushq  $0xf
  40112b:	e9 f0 fe ff ff       	jmpq   401020 <.plt>

0000000000401130 <strtol@plt>:
  401130:	ff 25 62 5f 00 00    	jmpq   *0x5f62(%rip)        # 407098 <strtol@GLIBC_2.2.5>
  401136:	68 10 00 00 00       	pushq  $0x10
  40113b:	e9 e0 fe ff ff       	jmpq   401020 <.plt>

0000000000401140 <memcpy@plt>:
  401140:	ff 25 5a 5f 00 00    	jmpq   *0x5f5a(%rip)        # 4070a0 <memcpy@GLIBC_2.14>
  401146:	68 11 00 00 00       	pushq  $0x11
  40114b:	e9 d0 fe ff ff       	jmpq   401020 <.plt>

0000000000401150 <time@plt>:
  401150:	ff 25 52 5f 00 00    	jmpq   *0x5f52(%rip)        # 4070a8 <time@GLIBC_2.2.5>
  401156:	68 12 00 00 00       	pushq  $0x12
  40115b:	e9 c0 fe ff ff       	jmpq   401020 <.plt>

0000000000401160 <random@plt>:
  401160:	ff 25 4a 5f 00 00    	jmpq   *0x5f4a(%rip)        # 4070b0 <random@GLIBC_2.2.5>
  401166:	68 13 00 00 00       	pushq  $0x13
  40116b:	e9 b0 fe ff ff       	jmpq   401020 <.plt>

0000000000401170 <__isoc99_sscanf@plt>:
  401170:	ff 25 42 5f 00 00    	jmpq   *0x5f42(%rip)        # 4070b8 <__isoc99_sscanf@GLIBC_2.7>
  401176:	68 14 00 00 00       	pushq  $0x14
  40117b:	e9 a0 fe ff ff       	jmpq   401020 <.plt>

0000000000401180 <munmap@plt>:
  401180:	ff 25 3a 5f 00 00    	jmpq   *0x5f3a(%rip)        # 4070c0 <munmap@GLIBC_2.2.5>
  401186:	68 15 00 00 00       	pushq  $0x15
  40118b:	e9 90 fe ff ff       	jmpq   401020 <.plt>

0000000000401190 <memmove@plt>:
  401190:	ff 25 32 5f 00 00    	jmpq   *0x5f32(%rip)        # 4070c8 <memmove@GLIBC_2.2.5>
  401196:	68 16 00 00 00       	pushq  $0x16
  40119b:	e9 80 fe ff ff       	jmpq   401020 <.plt>

00000000004011a0 <fopen@plt>:
  4011a0:	ff 25 2a 5f 00 00    	jmpq   *0x5f2a(%rip)        # 4070d0 <fopen@GLIBC_2.2.5>
  4011a6:	68 17 00 00 00       	pushq  $0x17
  4011ab:	e9 70 fe ff ff       	jmpq   401020 <.plt>

00000000004011b0 <getopt@plt>:
  4011b0:	ff 25 22 5f 00 00    	jmpq   *0x5f22(%rip)        # 4070d8 <getopt@GLIBC_2.2.5>
  4011b6:	68 18 00 00 00       	pushq  $0x18
  4011bb:	e9 60 fe ff ff       	jmpq   401020 <.plt>

00000000004011c0 <strtoul@plt>:
  4011c0:	ff 25 1a 5f 00 00    	jmpq   *0x5f1a(%rip)        # 4070e0 <strtoul@GLIBC_2.2.5>
  4011c6:	68 19 00 00 00       	pushq  $0x19
  4011cb:	e9 50 fe ff ff       	jmpq   401020 <.plt>

00000000004011d0 <gethostname@plt>:
  4011d0:	ff 25 12 5f 00 00    	jmpq   *0x5f12(%rip)        # 4070e8 <gethostname@GLIBC_2.2.5>
  4011d6:	68 1a 00 00 00       	pushq  $0x1a
  4011db:	e9 40 fe ff ff       	jmpq   401020 <.plt>

00000000004011e0 <sprintf@plt>:
  4011e0:	ff 25 0a 5f 00 00    	jmpq   *0x5f0a(%rip)        # 4070f0 <sprintf@GLIBC_2.2.5>
  4011e6:	68 1b 00 00 00       	pushq  $0x1b
  4011eb:	e9 30 fe ff ff       	jmpq   401020 <.plt>

00000000004011f0 <exit@plt>:
  4011f0:	ff 25 02 5f 00 00    	jmpq   *0x5f02(%rip)        # 4070f8 <exit@GLIBC_2.2.5>
  4011f6:	68 1c 00 00 00       	pushq  $0x1c
  4011fb:	e9 20 fe ff ff       	jmpq   401020 <.plt>

0000000000401200 <connect@plt>:
  401200:	ff 25 fa 5e 00 00    	jmpq   *0x5efa(%rip)        # 407100 <connect@GLIBC_2.2.5>
  401206:	68 1d 00 00 00       	pushq  $0x1d
  40120b:	e9 10 fe ff ff       	jmpq   401020 <.plt>

0000000000401210 <getc@plt>:
  401210:	ff 25 f2 5e 00 00    	jmpq   *0x5ef2(%rip)        # 407108 <getc@GLIBC_2.2.5>
  401216:	68 1e 00 00 00       	pushq  $0x1e
  40121b:	e9 00 fe ff ff       	jmpq   401020 <.plt>

0000000000401220 <socket@plt>:
  401220:	ff 25 ea 5e 00 00    	jmpq   *0x5eea(%rip)        # 407110 <socket@GLIBC_2.2.5>
  401226:	68 1f 00 00 00       	pushq  $0x1f
  40122b:	e9 f0 fd ff ff       	jmpq   401020 <.plt>

Disassembly of section .text:

0000000000401230 <_start>:
  401230:	31 ed                	xor    %ebp,%ebp
  401232:	49 89 d1             	mov    %rdx,%r9
  401235:	5e                   	pop    %rsi
  401236:	48 89 e2             	mov    %rsp,%rdx
  401239:	48 83 e4 f0          	and    $0xfffffffffffffff0,%rsp
  40123d:	50                   	push   %rax
  40123e:	54                   	push   %rsp
  40123f:	49 c7 c0 30 30 40 00 	mov    $0x403030,%r8
  401246:	48 c7 c1 d0 2f 40 00 	mov    $0x402fd0,%rcx
  40124d:	48 c7 c7 f6 14 40 00 	mov    $0x4014f6,%rdi
  401254:	ff 15 96 5d 00 00    	callq  *0x5d96(%rip)        # 406ff0 <__libc_start_main@GLIBC_2.2.5>
  40125a:	f4                   	hlt    
  40125b:	0f 1f 44 00 00       	nopl   0x0(%rax,%rax,1)

0000000000401260 <_dl_relocate_static_pie>:
  401260:	c3                   	retq   
  401261:	66 2e 0f 1f 84 00 00 	nopw   %cs:0x0(%rax,%rax,1)
  401268:	00 00 00 
  40126b:	0f 1f 44 00 00       	nopl   0x0(%rax,%rax,1)

0000000000401270 <deregister_tm_clones>:
  401270:	b8 88 74 40 00       	mov    $0x407488,%eax
  401275:	48 3d 88 74 40 00    	cmp    $0x407488,%rax
  40127b:	74 13                	je     401290 <deregister_tm_clones+0x20>
  40127d:	b8 00 00 00 00       	mov    $0x0,%eax
  401282:	48 85 c0             	test   %rax,%rax
  401285:	74 09                	je     401290 <deregister_tm_clones+0x20>
  401287:	bf 88 74 40 00       	mov    $0x407488,%edi
  40128c:	ff e0                	jmpq   *%rax
  40128e:	66 90                	xchg   %ax,%ax
  401290:	c3                   	retq   
  401291:	66 66 2e 0f 1f 84 00 	data16 nopw %cs:0x0(%rax,%rax,1)
  401298:	00 00 00 00 
  40129c:	0f 1f 40 00          	nopl   0x0(%rax)

00000000004012a0 <register_tm_clones>:
  4012a0:	be 88 74 40 00       	mov    $0x407488,%esi
  4012a5:	48 81 ee 88 74 40 00 	sub    $0x407488,%rsi
  4012ac:	48 c1 fe 03          	sar    $0x3,%rsi
  4012b0:	48 89 f0             	mov    %rsi,%rax
  4012b3:	48 c1 e8 3f          	shr    $0x3f,%rax
  4012b7:	48 01 c6             	add    %rax,%rsi
  4012ba:	48 d1 fe             	sar    %rsi
  4012bd:	74 11                	je     4012d0 <register_tm_clones+0x30>
  4012bf:	b8 00 00 00 00       	mov    $0x0,%eax
  4012c4:	48 85 c0             	test   %rax,%rax
  4012c7:	74 07                	je     4012d0 <register_tm_clones+0x30>
  4012c9:	bf 88 74 40 00       	mov    $0x407488,%edi
  4012ce:	ff e0                	jmpq   *%rax
  4012d0:	c3                   	retq   
  4012d1:	66 66 2e 0f 1f 84 00 	data16 nopw %cs:0x0(%rax,%rax,1)
  4012d8:	00 00 00 00 
  4012dc:	0f 1f 40 00          	nopl   0x0(%rax)

00000000004012e0 <__do_global_dtors_aux>:
  4012e0:	80 3d e1 61 00 00 00 	cmpb   $0x0,0x61e1(%rip)        # 4074c8 <completed.7325>
  4012e7:	75 17                	jne    401300 <__do_global_dtors_aux+0x20>
  4012e9:	55                   	push   %rbp
  4012ea:	48 89 e5             	mov    %rsp,%rbp
  4012ed:	e8 7e ff ff ff       	callq  401270 <deregister_tm_clones>
  4012f2:	c6 05 cf 61 00 00 01 	movb   $0x1,0x61cf(%rip)        # 4074c8 <completed.7325>
  4012f9:	5d                   	pop    %rbp
  4012fa:	c3                   	retq   
  4012fb:	0f 1f 44 00 00       	nopl   0x0(%rax,%rax,1)
  401300:	c3                   	retq   
  401301:	66 66 2e 0f 1f 84 00 	data16 nopw %cs:0x0(%rax,%rax,1)
  401308:	00 00 00 00 
  40130c:	0f 1f 40 00          	nopl   0x0(%rax)

0000000000401310 <frame_dummy>:
  401310:	eb 8e                	jmp    4012a0 <register_tm_clones>

0000000000401312 <usage>:
  401312:	48 83 ec 08          	sub    $0x8,%rsp
  401316:	48 89 fe             	mov    %rdi,%rsi
  401319:	83 3d ec 61 00 00 00 	cmpl   $0x0,0x61ec(%rip)        # 40750c <is_checker>
  401320:	74 4b                	je     40136d <usage+0x5b>
  401322:	48 8d 3d df 2c 00 00 	lea    0x2cdf(%rip),%rdi        # 404008 <_IO_stdin_used+0x8>
  401329:	b8 00 00 00 00       	mov    $0x0,%eax
  40132e:	e8 7d fd ff ff       	callq  4010b0 <printf@plt>
  401333:	48 8d 3d 06 2d 00 00 	lea    0x2d06(%rip),%rdi        # 404040 <_IO_stdin_used+0x40>
  40133a:	e8 41 fd ff ff       	callq  401080 <puts@plt>
  40133f:	48 8d 3d 72 2e 00 00 	lea    0x2e72(%rip),%rdi        # 4041b8 <_IO_stdin_used+0x1b8>
  401346:	e8 35 fd ff ff       	callq  401080 <puts@plt>
  40134b:	48 8d 3d 16 2d 00 00 	lea    0x2d16(%rip),%rdi        # 404068 <_IO_stdin_used+0x68>
  401352:	e8 29 fd ff ff       	callq  401080 <puts@plt>
  401357:	48 8d 3d 74 2e 00 00 	lea    0x2e74(%rip),%rdi        # 4041d2 <_IO_stdin_used+0x1d2>
  40135e:	e8 1d fd ff ff       	callq  401080 <puts@plt>
  401363:	bf 00 00 00 00       	mov    $0x0,%edi
  401368:	e8 83 fe ff ff       	callq  4011f0 <exit@plt>
  40136d:	48 8d 3d 7a 2e 00 00 	lea    0x2e7a(%rip),%rdi        # 4041ee <_IO_stdin_used+0x1ee>
  401374:	b8 00 00 00 00       	mov    $0x0,%eax
  401379:	e8 32 fd ff ff       	callq  4010b0 <printf@plt>
  40137e:	48 8d 3d 0b 2d 00 00 	lea    0x2d0b(%rip),%rdi        # 404090 <_IO_stdin_used+0x90>
  401385:	e8 f6 fc ff ff       	callq  401080 <puts@plt>
  40138a:	48 8d 3d 27 2d 00 00 	lea    0x2d27(%rip),%rdi        # 4040b8 <_IO_stdin_used+0xb8>
  401391:	e8 ea fc ff ff       	callq  401080 <puts@plt>
  401396:	48 8d 3d 6f 2e 00 00 	lea    0x2e6f(%rip),%rdi        # 40420c <_IO_stdin_used+0x20c>
  40139d:	e8 de fc ff ff       	callq  401080 <puts@plt>
  4013a2:	eb bf                	jmp    401363 <usage+0x51>

00000000004013a4 <initialize_target>:
  4013a4:	55                   	push   %rbp
  4013a5:	53                   	push   %rbx
  4013a6:	48 81 ec 08 21 00 00 	sub    $0x2108,%rsp
  4013ad:	89 f5                	mov    %esi,%ebp
  4013af:	89 3d 47 61 00 00    	mov    %edi,0x6147(%rip)        # 4074fc <check_level>
  4013b5:	8b 3d 75 5d 00 00    	mov    0x5d75(%rip),%edi        # 407130 <target_id>
  4013bb:	e8 e8 1b 00 00       	callq  402fa8 <gencookie>
  4013c0:	89 05 42 61 00 00    	mov    %eax,0x6142(%rip)        # 407508 <cookie>
  4013c6:	89 c7                	mov    %eax,%edi
  4013c8:	e8 db 1b 00 00       	callq  402fa8 <gencookie>
  4013cd:	89 05 31 61 00 00    	mov    %eax,0x6131(%rip)        # 407504 <authkey>
  4013d3:	8b 05 57 5d 00 00    	mov    0x5d57(%rip),%eax        # 407130 <target_id>
  4013d9:	8d 78 01             	lea    0x1(%rax),%edi
  4013dc:	e8 6f fc ff ff       	callq  401050 <srandom@plt>
  4013e1:	e8 7a fd ff ff       	callq  401160 <random@plt>
  4013e6:	89 c7                	mov    %eax,%edi
  4013e8:	e8 de 02 00 00       	callq  4016cb <scramble>
  4013ed:	89 c3                	mov    %eax,%ebx
  4013ef:	85 ed                	test   %ebp,%ebp
  4013f1:	75 3d                	jne    401430 <initialize_target+0x8c>
  4013f3:	b8 00 00 00 00       	mov    $0x0,%eax
  4013f8:	01 d8                	add    %ebx,%eax
  4013fa:	0f b7 c0             	movzwl %ax,%eax
  4013fd:	8d 04 c5 00 01 00 00 	lea    0x100(,%rax,8),%eax
  401404:	89 c0                	mov    %eax,%eax
  401406:	48 89 05 73 60 00 00 	mov    %rax,0x6073(%rip)        # 407480 <buf_offset>
  40140d:	c6 05 14 6d 00 00 72 	movb   $0x72,0x6d14(%rip)        # 408128 <target_prefix>
  401414:	83 3d dd 60 00 00 00 	cmpl   $0x0,0x60dd(%rip)        # 4074f8 <notify>
  40141b:	74 09                	je     401426 <initialize_target+0x82>
  40141d:	83 3d e8 60 00 00 00 	cmpl   $0x0,0x60e8(%rip)        # 40750c <is_checker>
  401424:	74 22                	je     401448 <initialize_target+0xa4>
  401426:	48 81 c4 08 21 00 00 	add    $0x2108,%rsp
  40142d:	5b                   	pop    %rbx
  40142e:	5d                   	pop    %rbp
  40142f:	c3                   	retq   
  401430:	bf 00 00 00 00       	mov    $0x0,%edi
  401435:	e8 16 fd ff ff       	callq  401150 <time@plt>
  40143a:	89 c7                	mov    %eax,%edi
  40143c:	e8 0f fc ff ff       	callq  401050 <srandom@plt>
  401441:	e8 1a fd ff ff       	callq  401160 <random@plt>
  401446:	eb b0                	jmp    4013f8 <initialize_target+0x54>
  401448:	48 89 e7             	mov    %rsp,%rdi
  40144b:	be 00 01 00 00       	mov    $0x100,%esi
  401450:	e8 7b fd ff ff       	callq  4011d0 <gethostname@plt>
  401455:	89 c5                	mov    %eax,%ebp
  401457:	85 c0                	test   %eax,%eax
  401459:	75 26                	jne    401481 <initialize_target+0xdd>
  40145b:	89 c3                	mov    %eax,%ebx
  40145d:	48 63 c3             	movslq %ebx,%rax
  401460:	48 8d 15 f9 5c 00 00 	lea    0x5cf9(%rip),%rdx        # 407160 <host_table>
  401467:	48 8b 3c c2          	mov    (%rdx,%rax,8),%rdi
  40146b:	48 85 ff             	test   %rdi,%rdi
  40146e:	74 2c                	je     40149c <initialize_target+0xf8>
  401470:	48 89 e6             	mov    %rsp,%rsi
  401473:	e8 b8 fb ff ff       	callq  401030 <strcasecmp@plt>
  401478:	85 c0                	test   %eax,%eax
  40147a:	74 1b                	je     401497 <initialize_target+0xf3>
  40147c:	83 c3 01             	add    $0x1,%ebx
  40147f:	eb dc                	jmp    40145d <initialize_target+0xb9>
  401481:	48 8d 3d 60 2c 00 00 	lea    0x2c60(%rip),%rdi        # 4040e8 <_IO_stdin_used+0xe8>
  401488:	e8 f3 fb ff ff       	callq  401080 <puts@plt>
  40148d:	bf 08 00 00 00       	mov    $0x8,%edi
  401492:	e8 59 fd ff ff       	callq  4011f0 <exit@plt>
  401497:	bd 01 00 00 00       	mov    $0x1,%ebp
  40149c:	85 ed                	test   %ebp,%ebp
  40149e:	74 38                	je     4014d8 <initialize_target+0x134>
  4014a0:	48 8d bc 24 00 01 00 	lea    0x100(%rsp),%rdi
  4014a7:	00 
  4014a8:	e8 60 18 00 00       	callq  402d0d <init_driver>
  4014ad:	85 c0                	test   %eax,%eax
  4014af:	0f 89 71 ff ff ff    	jns    401426 <initialize_target+0x82>
  4014b5:	48 8d b4 24 00 01 00 	lea    0x100(%rsp),%rsi
  4014bc:	00 
  4014bd:	48 8d 3d 9c 2c 00 00 	lea    0x2c9c(%rip),%rdi        # 404160 <_IO_stdin_used+0x160>
  4014c4:	b8 00 00 00 00       	mov    $0x0,%eax
  4014c9:	e8 e2 fb ff ff       	callq  4010b0 <printf@plt>
  4014ce:	bf 08 00 00 00       	mov    $0x8,%edi
  4014d3:	e8 18 fd ff ff       	callq  4011f0 <exit@plt>
  4014d8:	48 89 e6             	mov    %rsp,%rsi
  4014db:	48 8d 3d 3e 2c 00 00 	lea    0x2c3e(%rip),%rdi        # 404120 <_IO_stdin_used+0x120>
  4014e2:	b8 00 00 00 00       	mov    $0x0,%eax
  4014e7:	e8 c4 fb ff ff       	callq  4010b0 <printf@plt>
  4014ec:	bf 08 00 00 00       	mov    $0x8,%edi
  4014f1:	e8 fa fc ff ff       	callq  4011f0 <exit@plt>

00000000004014f6 <main>:
  4014f6:	41 56                	push   %r14
  4014f8:	41 55                	push   %r13
  4014fa:	41 54                	push   %r12
  4014fc:	55                   	push   %rbp
  4014fd:	53                   	push   %rbx
  4014fe:	89 fd                	mov    %edi,%ebp
  401500:	48 89 f3             	mov    %rsi,%rbx
  401503:	48 c7 c6 df 20 40 00 	mov    $0x4020df,%rsi
  40150a:	bf 0b 00 00 00       	mov    $0xb,%edi
  40150f:	e8 ec fb ff ff       	callq  401100 <signal@plt>
  401514:	48 c7 c6 8b 20 40 00 	mov    $0x40208b,%rsi
  40151b:	bf 07 00 00 00       	mov    $0x7,%edi
  401520:	e8 db fb ff ff       	callq  401100 <signal@plt>
  401525:	48 c7 c6 33 21 40 00 	mov    $0x402133,%rsi
  40152c:	bf 04 00 00 00       	mov    $0x4,%edi
  401531:	e8 ca fb ff ff       	callq  401100 <signal@plt>
  401536:	83 3d cf 5f 00 00 00 	cmpl   $0x0,0x5fcf(%rip)        # 40750c <is_checker>
  40153d:	75 26                	jne    401565 <main+0x6f>
  40153f:	4c 8d 25 e7 2c 00 00 	lea    0x2ce7(%rip),%r12        # 40422d <_IO_stdin_used+0x22d>
  401546:	48 8b 05 53 5f 00 00 	mov    0x5f53(%rip),%rax        # 4074a0 <stdin@@GLIBC_2.2.5>
  40154d:	48 89 05 9c 5f 00 00 	mov    %rax,0x5f9c(%rip)        # 4074f0 <infile>
  401554:	41 bd 00 00 00 00    	mov    $0x0,%r13d
  40155a:	41 be 00 00 00 00    	mov    $0x0,%r14d
  401560:	e9 88 00 00 00       	jmpq   4015ed <main+0xf7>
  401565:	48 c7 c6 87 21 40 00 	mov    $0x402187,%rsi
  40156c:	bf 0e 00 00 00       	mov    $0xe,%edi
  401571:	e8 8a fb ff ff       	callq  401100 <signal@plt>
  401576:	bf 05 00 00 00       	mov    $0x5,%edi
  40157b:	e8 50 fb ff ff       	callq  4010d0 <alarm@plt>
  401580:	4c 8d 25 9e 2c 00 00 	lea    0x2c9e(%rip),%r12        # 404225 <_IO_stdin_used+0x225>
  401587:	eb bd                	jmp    401546 <main+0x50>
  401589:	48 8b 3b             	mov    (%rbx),%rdi
  40158c:	e8 81 fd ff ff       	callq  401312 <usage>
  401591:	48 8d 35 da 2e 00 00 	lea    0x2eda(%rip),%rsi        # 404472 <_IO_stdin_used+0x472>
  401598:	48 8b 3d 09 5f 00 00 	mov    0x5f09(%rip),%rdi        # 4074a8 <optarg@@GLIBC_2.2.5>
  40159f:	e8 fc fb ff ff       	callq  4011a0 <fopen@plt>
  4015a4:	48 89 05 45 5f 00 00 	mov    %rax,0x5f45(%rip)        # 4074f0 <infile>
  4015ab:	48 85 c0             	test   %rax,%rax
  4015ae:	75 3d                	jne    4015ed <main+0xf7>
  4015b0:	48 8b 15 f1 5e 00 00 	mov    0x5ef1(%rip),%rdx        # 4074a8 <optarg@@GLIBC_2.2.5>
  4015b7:	48 8d 35 74 2c 00 00 	lea    0x2c74(%rip),%rsi        # 404232 <_IO_stdin_used+0x232>
  4015be:	48 8b 3d fb 5e 00 00 	mov    0x5efb(%rip),%rdi        # 4074c0 <stderr@@GLIBC_2.2.5>
  4015c5:	e8 56 fb ff ff       	callq  401120 <fprintf@plt>
  4015ca:	b8 01 00 00 00       	mov    $0x1,%eax
  4015cf:	e9 ce 00 00 00       	jmpq   4016a2 <main+0x1ac>
  4015d4:	ba 10 00 00 00       	mov    $0x10,%edx
  4015d9:	be 00 00 00 00       	mov    $0x0,%esi
  4015de:	48 8b 3d c3 5e 00 00 	mov    0x5ec3(%rip),%rdi        # 4074a8 <optarg@@GLIBC_2.2.5>
  4015e5:	e8 d6 fb ff ff       	callq  4011c0 <strtoul@plt>
  4015ea:	41 89 c6             	mov    %eax,%r14d
  4015ed:	4c 89 e2             	mov    %r12,%rdx
  4015f0:	48 89 de             	mov    %rbx,%rsi
  4015f3:	89 ef                	mov    %ebp,%edi
  4015f5:	e8 b6 fb ff ff       	callq  4011b0 <getopt@plt>
  4015fa:	3c ff                	cmp    $0xff,%al
  4015fc:	74 5d                	je     40165b <main+0x165>
  4015fe:	0f be f0             	movsbl %al,%esi
  401601:	83 e8 61             	sub    $0x61,%eax
  401604:	3c 10                	cmp    $0x10,%al
  401606:	77 3a                	ja     401642 <main+0x14c>
  401608:	0f b6 c0             	movzbl %al,%eax
  40160b:	48 8d 15 5e 2c 00 00 	lea    0x2c5e(%rip),%rdx        # 404270 <_IO_stdin_used+0x270>
  401612:	48 63 04 82          	movslq (%rdx,%rax,4),%rax
  401616:	48 01 d0             	add    %rdx,%rax
  401619:	ff e0                	jmpq   *%rax
  40161b:	ba 0a 00 00 00       	mov    $0xa,%edx
  401620:	be 00 00 00 00       	mov    $0x0,%esi
  401625:	48 8b 3d 7c 5e 00 00 	mov    0x5e7c(%rip),%rdi        # 4074a8 <optarg@@GLIBC_2.2.5>
  40162c:	e8 ff fa ff ff       	callq  401130 <strtol@plt>
  401631:	41 89 c5             	mov    %eax,%r13d
  401634:	eb b7                	jmp    4015ed <main+0xf7>
  401636:	c7 05 b8 5e 00 00 00 	movl   $0x0,0x5eb8(%rip)        # 4074f8 <notify>
  40163d:	00 00 00 
  401640:	eb ab                	jmp    4015ed <main+0xf7>
  401642:	48 8d 3d 06 2c 00 00 	lea    0x2c06(%rip),%rdi        # 40424f <_IO_stdin_used+0x24f>
  401649:	b8 00 00 00 00       	mov    $0x0,%eax
  40164e:	e8 5d fa ff ff       	callq  4010b0 <printf@plt>
  401653:	48 8b 3b             	mov    (%rbx),%rdi
  401656:	e8 b7 fc ff ff       	callq  401312 <usage>
  40165b:	be 01 00 00 00       	mov    $0x1,%esi
  401660:	44 89 ef             	mov    %r13d,%edi
  401663:	e8 3c fd ff ff       	callq  4013a4 <initialize_target>
  401668:	83 3d 9d 5e 00 00 00 	cmpl   $0x0,0x5e9d(%rip)        # 40750c <is_checker>
  40166f:	74 09                	je     40167a <main+0x184>
  401671:	44 39 35 8c 5e 00 00 	cmp    %r14d,0x5e8c(%rip)        # 407504 <authkey>
  401678:	75 31                	jne    4016ab <main+0x1b5>
  40167a:	8b 35 88 5e 00 00    	mov    0x5e88(%rip),%esi        # 407508 <cookie>
  401680:	48 8d 3d db 2b 00 00 	lea    0x2bdb(%rip),%rdi        # 404262 <_IO_stdin_used+0x262>
  401687:	b8 00 00 00 00       	mov    $0x0,%eax
  40168c:	e8 1f fa ff ff       	callq  4010b0 <printf@plt>
  401691:	48 8b 3d e8 5d 00 00 	mov    0x5de8(%rip),%rdi        # 407480 <buf_offset>
  401698:	e8 3c 0b 00 00       	callq  4021d9 <launch>
  40169d:	b8 00 00 00 00       	mov    $0x0,%eax
  4016a2:	5b                   	pop    %rbx
  4016a3:	5d                   	pop    %rbp
  4016a4:	41 5c                	pop    %r12
  4016a6:	41 5d                	pop    %r13
  4016a8:	41 5e                	pop    %r14
  4016aa:	c3                   	retq   
  4016ab:	44 89 f6             	mov    %r14d,%esi
  4016ae:	48 8d 3d d3 2a 00 00 	lea    0x2ad3(%rip),%rdi        # 404188 <_IO_stdin_used+0x188>
  4016b5:	b8 00 00 00 00       	mov    $0x0,%eax
  4016ba:	e8 f1 f9 ff ff       	callq  4010b0 <printf@plt>
  4016bf:	b8 00 00 00 00       	mov    $0x0,%eax
  4016c4:	e8 af 07 00 00       	callq  401e78 <check_fail>
  4016c9:	eb af                	jmp    40167a <main+0x184>

00000000004016cb <scramble>:
  4016cb:	b8 00 00 00 00       	mov    $0x0,%eax
  4016d0:	83 f8 09             	cmp    $0x9,%eax
  4016d3:	77 13                	ja     4016e8 <scramble+0x1d>
  4016d5:	69 d0 3c bb 00 00    	imul   $0xbb3c,%eax,%edx
  4016db:	01 fa                	add    %edi,%edx
  4016dd:	89 c1                	mov    %eax,%ecx
  4016df:	89 54 8c d0          	mov    %edx,-0x30(%rsp,%rcx,4)
  4016e3:	83 c0 01             	add    $0x1,%eax
  4016e6:	eb e8                	jmp    4016d0 <scramble+0x5>
  4016e8:	8b 44 24 d8          	mov    -0x28(%rsp),%eax
  4016ec:	69 c0 0e 0d 00 00    	imul   $0xd0e,%eax,%eax
  4016f2:	89 44 24 d8          	mov    %eax,-0x28(%rsp)
  4016f6:	8b 44 24 e8          	mov    -0x18(%rsp),%eax
  4016fa:	69 c0 56 cd 00 00    	imul   $0xcd56,%eax,%eax
  401700:	89 44 24 e8          	mov    %eax,-0x18(%rsp)
  401704:	8b 44 24 e8          	mov    -0x18(%rsp),%eax
  401708:	69 c0 8c f8 00 00    	imul   $0xf88c,%eax,%eax
  40170e:	89 44 24 e8          	mov    %eax,-0x18(%rsp)
  401712:	8b 44 24 e8          	mov    -0x18(%rsp),%eax
  401716:	69 c0 dc 7f 00 00    	imul   $0x7fdc,%eax,%eax
  40171c:	89 44 24 e8          	mov    %eax,-0x18(%rsp)
  401720:	8b 44 24 e8          	mov    -0x18(%rsp),%eax
  401724:	69 c0 b3 ee 00 00    	imul   $0xeeb3,%eax,%eax
  40172a:	89 44 24 e8          	mov    %eax,-0x18(%rsp)
  40172e:	8b 44 24 f0          	mov    -0x10(%rsp),%eax
  401732:	69 c0 c7 a7 00 00    	imul   $0xa7c7,%eax,%eax
  401738:	89 44 24 f0          	mov    %eax,-0x10(%rsp)
  40173c:	8b 44 24 e0          	mov    -0x20(%rsp),%eax
  401740:	69 c0 04 7e 00 00    	imul   $0x7e04,%eax,%eax
  401746:	89 44 24 e0          	mov    %eax,-0x20(%rsp)
  40174a:	8b 44 24 d4          	mov    -0x2c(%rsp),%eax
  40174e:	69 c0 cc 3a 00 00    	imul   $0x3acc,%eax,%eax
  401754:	89 44 24 d4          	mov    %eax,-0x2c(%rsp)
  401758:	8b 44 24 d4          	mov    -0x2c(%rsp),%eax
  40175c:	69 c0 cd 79 00 00    	imul   $0x79cd,%eax,%eax
  401762:	89 44 24 d4          	mov    %eax,-0x2c(%rsp)
  401766:	8b 44 24 ec          	mov    -0x14(%rsp),%eax
  40176a:	69 c0 23 c1 00 00    	imul   $0xc123,%eax,%eax
  401770:	89 44 24 ec          	mov    %eax,-0x14(%rsp)
  401774:	8b 44 24 ec          	mov    -0x14(%rsp),%eax
  401778:	69 c0 af e0 00 00    	imul   $0xe0af,%eax,%eax
  40177e:	89 44 24 ec          	mov    %eax,-0x14(%rsp)
  401782:	8b 44 24 f0          	mov    -0x10(%rsp),%eax
  401786:	69 c0 c4 d9 00 00    	imul   $0xd9c4,%eax,%eax
  40178c:	89 44 24 f0          	mov    %eax,-0x10(%rsp)
  401790:	8b 44 24 d0          	mov    -0x30(%rsp),%eax
  401794:	69 c0 96 77 00 00    	imul   $0x7796,%eax,%eax
  40179a:	89 44 24 d0          	mov    %eax,-0x30(%rsp)
  40179e:	8b 44 24 f4          	mov    -0xc(%rsp),%eax
  4017a2:	69 c0 40 17 00 00    	imul   $0x1740,%eax,%eax
  4017a8:	89 44 24 f4          	mov    %eax,-0xc(%rsp)
  4017ac:	8b 44 24 d4          	mov    -0x2c(%rsp),%eax
  4017b0:	69 c0 63 40 00 00    	imul   $0x4063,%eax,%eax
  4017b6:	89 44 24 d4          	mov    %eax,-0x2c(%rsp)
  4017ba:	8b 44 24 f4          	mov    -0xc(%rsp),%eax
  4017be:	69 c0 75 f9 00 00    	imul   $0xf975,%eax,%eax
  4017c4:	89 44 24 f4          	mov    %eax,-0xc(%rsp)
  4017c8:	8b 44 24 ec          	mov    -0x14(%rsp),%eax
  4017cc:	69 c0 ff dd 00 00    	imul   $0xddff,%eax,%eax
  4017d2:	89 44 24 ec          	mov    %eax,-0x14(%rsp)
  4017d6:	8b 44 24 dc          	mov    -0x24(%rsp),%eax
  4017da:	69 c0 35 56 00 00    	imul   $0x5635,%eax,%eax
  4017e0:	89 44 24 dc          	mov    %eax,-0x24(%rsp)
  4017e4:	8b 44 24 ec          	mov    -0x14(%rsp),%eax
  4017e8:	69 c0 44 8f 00 00    	imul   $0x8f44,%eax,%eax
  4017ee:	89 44 24 ec          	mov    %eax,-0x14(%rsp)
  4017f2:	8b 44 24 d4          	mov    -0x2c(%rsp),%eax
  4017f6:	69 c0 e9 62 00 00    	imul   $0x62e9,%eax,%eax
  4017fc:	89 44 24 d4          	mov    %eax,-0x2c(%rsp)
  401800:	8b 44 24 d0          	mov    -0x30(%rsp),%eax
  401804:	69 c0 cb ad 00 00    	imul   $0xadcb,%eax,%eax
  40180a:	89 44 24 d0          	mov    %eax,-0x30(%rsp)
  40180e:	8b 44 24 e0          	mov    -0x20(%rsp),%eax
  401812:	69 c0 32 49 00 00    	imul   $0x4932,%eax,%eax
  401818:	89 44 24 e0          	mov    %eax,-0x20(%rsp)
  40181c:	8b 44 24 d0          	mov    -0x30(%rsp),%eax
  401820:	69 c0 80 5a 00 00    	imul   $0x5a80,%eax,%eax
  401826:	89 44 24 d0          	mov    %eax,-0x30(%rsp)
  40182a:	8b 44 24 d0          	mov    -0x30(%rsp),%eax
  40182e:	69 c0 e9 7b 00 00    	imul   $0x7be9,%eax,%eax
  401834:	89 44 24 d0          	mov    %eax,-0x30(%rsp)
  401838:	8b 44 24 e8          	mov    -0x18(%rsp),%eax
  40183c:	69 c0 72 b9 00 00    	imul   $0xb972,%eax,%eax
  401842:	89 44 24 e8          	mov    %eax,-0x18(%rsp)
  401846:	8b 44 24 dc          	mov    -0x24(%rsp),%eax
  40184a:	69 c0 b7 ae 00 00    	imul   $0xaeb7,%eax,%eax
  401850:	89 44 24 dc          	mov    %eax,-0x24(%rsp)
  401854:	8b 44 24 dc          	mov    -0x24(%rsp),%eax
  401858:	69 c0 3e 3e 00 00    	imul   $0x3e3e,%eax,%eax
  40185e:	89 44 24 dc          	mov    %eax,-0x24(%rsp)
  401862:	8b 44 24 d0          	mov    -0x30(%rsp),%eax
  401866:	69 c0 b2 50 00 00    	imul   $0x50b2,%eax,%eax
  40186c:	89 44 24 d0          	mov    %eax,-0x30(%rsp)
  401870:	8b 44 24 e8          	mov    -0x18(%rsp),%eax
  401874:	69 c0 52 7e 00 00    	imul   $0x7e52,%eax,%eax
  40187a:	89 44 24 e8          	mov    %eax,-0x18(%rsp)
  40187e:	8b 44 24 d4          	mov    -0x2c(%rsp),%eax
  401882:	69 c0 0d f4 00 00    	imul   $0xf40d,%eax,%eax
  401888:	89 44 24 d4          	mov    %eax,-0x2c(%rsp)
  40188c:	8b 44 24 e4          	mov    -0x1c(%rsp),%eax
  401890:	69 c0 a5 42 00 00    	imul   $0x42a5,%eax,%eax
  401896:	89 44 24 e4          	mov    %eax,-0x1c(%rsp)
  40189a:	8b 44 24 e4          	mov    -0x1c(%rsp),%eax
  40189e:	69 c0 26 0c 00 00    	imul   $0xc26,%eax,%eax
  4018a4:	89 44 24 e4          	mov    %eax,-0x1c(%rsp)
  4018a8:	8b 44 24 ec          	mov    -0x14(%rsp),%eax
  4018ac:	69 c0 4e b4 00 00    	imul   $0xb44e,%eax,%eax
  4018b2:	89 44 24 ec          	mov    %eax,-0x14(%rsp)
  4018b6:	8b 44 24 f0          	mov    -0x10(%rsp),%eax
  4018ba:	69 c0 30 f7 00 00    	imul   $0xf730,%eax,%eax
  4018c0:	89 44 24 f0          	mov    %eax,-0x10(%rsp)
  4018c4:	8b 44 24 d0          	mov    -0x30(%rsp),%eax
  4018c8:	69 c0 6d 38 00 00    	imul   $0x386d,%eax,%eax
  4018ce:	89 44 24 d0          	mov    %eax,-0x30(%rsp)
  4018d2:	8b 44 24 d0          	mov    -0x30(%rsp),%eax
  4018d6:	69 c0 8a c1 00 00    	imul   $0xc18a,%eax,%eax
  4018dc:	89 44 24 d0          	mov    %eax,-0x30(%rsp)
  4018e0:	8b 44 24 e0          	mov    -0x20(%rsp),%eax
  4018e4:	69 c0 ca 64 00 00    	imul   $0x64ca,%eax,%eax
  4018ea:	89 44 24 e0          	mov    %eax,-0x20(%rsp)
  4018ee:	8b 44 24 ec          	mov    -0x14(%rsp),%eax
  4018f2:	69 c0 08 12 00 00    	imul   $0x1208,%eax,%eax
  4018f8:	89 44 24 ec          	mov    %eax,-0x14(%rsp)
  4018fc:	8b 44 24 e0          	mov    -0x20(%rsp),%eax
  401900:	69 c0 ba 8e 00 00    	imul   $0x8eba,%eax,%eax
  401906:	89 44 24 e0          	mov    %eax,-0x20(%rsp)
  40190a:	8b 44 24 f0          	mov    -0x10(%rsp),%eax
  40190e:	69 c0 99 93 00 00    	imul   $0x9399,%eax,%eax
  401914:	89 44 24 f0          	mov    %eax,-0x10(%rsp)
  401918:	8b 44 24 f0          	mov    -0x10(%rsp),%eax
  40191c:	69 c0 fe ca 00 00    	imul   $0xcafe,%eax,%eax
  401922:	89 44 24 f0          	mov    %eax,-0x10(%rsp)
  401926:	8b 44 24 e8          	mov    -0x18(%rsp),%eax
  40192a:	69 c0 4e e2 00 00    	imul   $0xe24e,%eax,%eax
  401930:	89 44 24 e8          	mov    %eax,-0x18(%rsp)
  401934:	8b 44 24 f0          	mov    -0x10(%rsp),%eax
  401938:	69 c0 cb ca 00 00    	imul   $0xcacb,%eax,%eax
  40193e:	89 44 24 f0          	mov    %eax,-0x10(%rsp)
  401942:	8b 44 24 ec          	mov    -0x14(%rsp),%eax
  401946:	69 c0 10 bf 00 00    	imul   $0xbf10,%eax,%eax
  40194c:	89 44 24 ec          	mov    %eax,-0x14(%rsp)
  401950:	8b 44 24 e8          	mov    -0x18(%rsp),%eax
  401954:	69 c0 f2 9a 00 00    	imul   $0x9af2,%eax,%eax
  40195a:	89 44 24 e8          	mov    %eax,-0x18(%rsp)
  40195e:	8b 44 24 f0          	mov    -0x10(%rsp),%eax
  401962:	69 c0 d2 07 00 00    	imul   $0x7d2,%eax,%eax
  401968:	89 44 24 f0          	mov    %eax,-0x10(%rsp)
  40196c:	8b 44 24 d0          	mov    -0x30(%rsp),%eax
  401970:	69 c0 a1 a0 00 00    	imul   $0xa0a1,%eax,%eax
  401976:	89 44 24 d0          	mov    %eax,-0x30(%rsp)
  40197a:	8b 44 24 e4          	mov    -0x1c(%rsp),%eax
  40197e:	69 c0 3d fe 00 00    	imul   $0xfe3d,%eax,%eax
  401984:	89 44 24 e4          	mov    %eax,-0x1c(%rsp)
  401988:	8b 44 24 e4          	mov    -0x1c(%rsp),%eax
  40198c:	69 c0 54 76 00 00    	imul   $0x7654,%eax,%eax
  401992:	89 44 24 e4          	mov    %eax,-0x1c(%rsp)
  401996:	8b 44 24 e4          	mov    -0x1c(%rsp),%eax
  40199a:	69 c0 82 98 00 00    	imul   $0x9882,%eax,%eax
  4019a0:	89 44 24 e4          	mov    %eax,-0x1c(%rsp)
  4019a4:	8b 44 24 e8          	mov    -0x18(%rsp),%eax
  4019a8:	69 c0 87 4f 00 00    	imul   $0x4f87,%eax,%eax
  4019ae:	89 44 24 e8          	mov    %eax,-0x18(%rsp)
  4019b2:	8b 44 24 f0          	mov    -0x10(%rsp),%eax
  4019b6:	69 c0 f9 94 00 00    	imul   $0x94f9,%eax,%eax
  4019bc:	89 44 24 f0          	mov    %eax,-0x10(%rsp)
  4019c0:	8b 44 24 e0          	mov    -0x20(%rsp),%eax
  4019c4:	69 c0 c8 64 00 00    	imul   $0x64c8,%eax,%eax
  4019ca:	89 44 24 e0          	mov    %eax,-0x20(%rsp)
  4019ce:	8b 44 24 f0          	mov    -0x10(%rsp),%eax
  4019d2:	69 c0 9d 73 00 00    	imul   $0x739d,%eax,%eax
  4019d8:	89 44 24 f0          	mov    %eax,-0x10(%rsp)
  4019dc:	8b 44 24 e8          	mov    -0x18(%rsp),%eax
  4019e0:	69 c0 f4 34 00 00    	imul   $0x34f4,%eax,%eax
  4019e6:	89 44 24 e8          	mov    %eax,-0x18(%rsp)
  4019ea:	8b 44 24 f0          	mov    -0x10(%rsp),%eax
  4019ee:	69 c0 af 3b 00 00    	imul   $0x3baf,%eax,%eax
  4019f4:	89 44 24 f0          	mov    %eax,-0x10(%rsp)
  4019f8:	8b 44 24 dc          	mov    -0x24(%rsp),%eax
  4019fc:	69 c0 86 49 00 00    	imul   $0x4986,%eax,%eax
  401a02:	89 44 24 dc          	mov    %eax,-0x24(%rsp)
  401a06:	8b 44 24 ec          	mov    -0x14(%rsp),%eax
  401a0a:	69 c0 2f 09 00 00    	imul   $0x92f,%eax,%eax
  401a10:	89 44 24 ec          	mov    %eax,-0x14(%rsp)
  401a14:	8b 44 24 dc          	mov    -0x24(%rsp),%eax
  401a18:	69 c0 fd 50 00 00    	imul   $0x50fd,%eax,%eax
  401a1e:	89 44 24 dc          	mov    %eax,-0x24(%rsp)
  401a22:	8b 44 24 f4          	mov    -0xc(%rsp),%eax
  401a26:	69 c0 6f 5d 00 00    	imul   $0x5d6f,%eax,%eax
  401a2c:	89 44 24 f4          	mov    %eax,-0xc(%rsp)
  401a30:	8b 44 24 ec          	mov    -0x14(%rsp),%eax
  401a34:	69 c0 5d 7b 00 00    	imul   $0x7b5d,%eax,%eax
  401a3a:	89 44 24 ec          	mov    %eax,-0x14(%rsp)
  401a3e:	8b 44 24 d8          	mov    -0x28(%rsp),%eax
  401a42:	69 c0 87 c9 00 00    	imul   $0xc987,%eax,%eax
  401a48:	89 44 24 d8          	mov    %eax,-0x28(%rsp)
  401a4c:	8b 44 24 d8          	mov    -0x28(%rsp),%eax
  401a50:	69 c0 3a 79 00 00    	imul   $0x793a,%eax,%eax
  401a56:	89 44 24 d8          	mov    %eax,-0x28(%rsp)
  401a5a:	8b 44 24 f0          	mov    -0x10(%rsp),%eax
  401a5e:	69 c0 ee 70 00 00    	imul   $0x70ee,%eax,%eax
  401a64:	89 44 24 f0          	mov    %eax,-0x10(%rsp)
  401a68:	8b 44 24 e0          	mov    -0x20(%rsp),%eax
  401a6c:	69 c0 32 bd 00 00    	imul   $0xbd32,%eax,%eax
  401a72:	89 44 24 e0          	mov    %eax,-0x20(%rsp)
  401a76:	8b 44 24 e4          	mov    -0x1c(%rsp),%eax
  401a7a:	69 c0 4f 9e 00 00    	imul   $0x9e4f,%eax,%eax
  401a80:	89 44 24 e4          	mov    %eax,-0x1c(%rsp)
  401a84:	8b 44 24 e0          	mov    -0x20(%rsp),%eax
  401a88:	69 c0 7c 63 00 00    	imul   $0x637c,%eax,%eax
  401a8e:	89 44 24 e0          	mov    %eax,-0x20(%rsp)
  401a92:	8b 44 24 e0          	mov    -0x20(%rsp),%eax
  401a96:	69 c0 0b c1 00 00    	imul   $0xc10b,%eax,%eax
  401a9c:	89 44 24 e0          	mov    %eax,-0x20(%rsp)
  401aa0:	8b 44 24 d8          	mov    -0x28(%rsp),%eax
  401aa4:	69 c0 4a da 00 00    	imul   $0xda4a,%eax,%eax
  401aaa:	89 44 24 d8          	mov    %eax,-0x28(%rsp)
  401aae:	8b 44 24 d0          	mov    -0x30(%rsp),%eax
  401ab2:	69 c0 c6 bb 00 00    	imul   $0xbbc6,%eax,%eax
  401ab8:	89 44 24 d0          	mov    %eax,-0x30(%rsp)
  401abc:	8b 44 24 d4          	mov    -0x2c(%rsp),%eax
  401ac0:	69 c0 de 3b 00 00    	imul   $0x3bde,%eax,%eax
  401ac6:	89 44 24 d4          	mov    %eax,-0x2c(%rsp)
  401aca:	8b 44 24 e0          	mov    -0x20(%rsp),%eax
  401ace:	69 c0 31 0f 00 00    	imul   $0xf31,%eax,%eax
  401ad4:	89 44 24 e0          	mov    %eax,-0x20(%rsp)
  401ad8:	8b 44 24 f0          	mov    -0x10(%rsp),%eax
  401adc:	69 c0 72 15 00 00    	imul   $0x1572,%eax,%eax
  401ae2:	89 44 24 f0          	mov    %eax,-0x10(%rsp)
  401ae6:	8b 44 24 d4          	mov    -0x2c(%rsp),%eax
  401aea:	69 c0 b6 99 00 00    	imul   $0x99b6,%eax,%eax
  401af0:	89 44 24 d4          	mov    %eax,-0x2c(%rsp)
  401af4:	8b 44 24 d4          	mov    -0x2c(%rsp),%eax
  401af8:	69 c0 9f e0 00 00    	imul   $0xe09f,%eax,%eax
  401afe:	89 44 24 d4          	mov    %eax,-0x2c(%rsp)
  401b02:	8b 44 24 dc          	mov    -0x24(%rsp),%eax
  401b06:	69 c0 5f 52 00 00    	imul   $0x525f,%eax,%eax
  401b0c:	89 44 24 dc          	mov    %eax,-0x24(%rsp)
  401b10:	8b 44 24 d0          	mov    -0x30(%rsp),%eax
  401b14:	69 c0 66 5c 00 00    	imul   $0x5c66,%eax,%eax
  401b1a:	89 44 24 d0          	mov    %eax,-0x30(%rsp)
  401b1e:	ba 00 00 00 00       	mov    $0x0,%edx
  401b23:	b8 00 00 00 00       	mov    $0x0,%eax
  401b28:	83 fa 09             	cmp    $0x9,%edx
  401b2b:	77 0d                	ja     401b3a <scramble+0x46f>
  401b2d:	89 d1                	mov    %edx,%ecx
  401b2f:	8b 4c 8c d0          	mov    -0x30(%rsp,%rcx,4),%ecx
  401b33:	01 c8                	add    %ecx,%eax
  401b35:	83 c2 01             	add    $0x1,%edx
  401b38:	eb ee                	jmp    401b28 <scramble+0x45d>
  401b3a:	c3                   	retq   

0000000000401b3b <getbuf>:
  401b3b:	48 83 ec 18          	sub    $0x18,%rsp
  401b3f:	48 89 e7             	mov    %rsp,%rdi
  401b42:	e8 64 03 00 00       	callq  401eab <Gets>
  401b47:	b8 01 00 00 00       	mov    $0x1,%eax
  401b4c:	48 83 c4 18          	add    $0x18,%rsp
  401b50:	c3                   	retq   

0000000000401b51 <touch1>:
  401b51:	48 83 ec 08          	sub    $0x8,%rsp
  401b55:	c7 05 a1 59 00 00 01 	movl   $0x1,0x59a1(%rip)        # 407500 <vlevel>
  401b5c:	00 00 00 
  401b5f:	48 8d 3d ae 27 00 00 	lea    0x27ae(%rip),%rdi        # 404314 <_IO_stdin_used+0x314>
  401b66:	e8 15 f5 ff ff       	callq  401080 <puts@plt>
  401b6b:	bf 01 00 00 00       	mov    $0x1,%edi
  401b70:	e8 30 04 00 00       	callq  401fa5 <validate>
  401b75:	bf 00 00 00 00       	mov    $0x0,%edi
  401b7a:	e8 71 f6 ff ff       	callq  4011f0 <exit@plt>

0000000000401b7f <touch2>:
  401b7f:	48 83 ec 08          	sub    $0x8,%rsp
  401b83:	89 fe                	mov    %edi,%esi
  401b85:	c7 05 71 59 00 00 02 	movl   $0x2,0x5971(%rip)        # 407500 <vlevel>
  401b8c:	00 00 00 
  401b8f:	39 3d 73 59 00 00    	cmp    %edi,0x5973(%rip)        # 407508 <cookie>
  401b95:	74 25                	je     401bbc <touch2+0x3d>
  401b97:	48 8d 3d c2 27 00 00 	lea    0x27c2(%rip),%rdi        # 404360 <_IO_stdin_used+0x360>
  401b9e:	b8 00 00 00 00       	mov    $0x0,%eax
  401ba3:	e8 08 f5 ff ff       	callq  4010b0 <printf@plt>
  401ba8:	bf 02 00 00 00       	mov    $0x2,%edi
  401bad:	e8 b1 04 00 00       	callq  402063 <fail>
  401bb2:	bf 00 00 00 00       	mov    $0x0,%edi
  401bb7:	e8 34 f6 ff ff       	callq  4011f0 <exit@plt>
  401bbc:	48 8d 3d 75 27 00 00 	lea    0x2775(%rip),%rdi        # 404338 <_IO_stdin_used+0x338>
  401bc3:	b8 00 00 00 00       	mov    $0x0,%eax
  401bc8:	e8 e3 f4 ff ff       	callq  4010b0 <printf@plt>
  401bcd:	bf 02 00 00 00       	mov    $0x2,%edi
  401bd2:	e8 ce 03 00 00       	callq  401fa5 <validate>
  401bd7:	eb d9                	jmp    401bb2 <touch2+0x33>

0000000000401bd9 <hexmatch>:
  401bd9:	41 54                	push   %r12
  401bdb:	55                   	push   %rbp
  401bdc:	53                   	push   %rbx
  401bdd:	48 83 ec 70          	sub    $0x70,%rsp
  401be1:	89 fd                	mov    %edi,%ebp
  401be3:	48 89 f3             	mov    %rsi,%rbx
  401be6:	e8 75 f5 ff ff       	callq  401160 <random@plt>
  401beb:	48 89 c1             	mov    %rax,%rcx
  401bee:	48 ba 0b d7 a3 70 3d 	movabs $0xa3d70a3d70a3d70b,%rdx
  401bf5:	0a d7 a3 
  401bf8:	48 f7 ea             	imul   %rdx
  401bfb:	48 01 ca             	add    %rcx,%rdx
  401bfe:	48 c1 fa 06          	sar    $0x6,%rdx
  401c02:	48 89 c8             	mov    %rcx,%rax
  401c05:	48 c1 f8 3f          	sar    $0x3f,%rax
  401c09:	48 29 c2             	sub    %rax,%rdx
  401c0c:	48 8d 04 92          	lea    (%rdx,%rdx,4),%rax
  401c10:	48 8d 14 80          	lea    (%rax,%rax,4),%rdx
  401c14:	48 8d 04 95 00 00 00 	lea    0x0(,%rdx,4),%rax
  401c1b:	00 
  401c1c:	48 29 c1             	sub    %rax,%rcx
  401c1f:	4c 8d 24 0c          	lea    (%rsp,%rcx,1),%r12
  401c23:	89 ea                	mov    %ebp,%edx
  401c25:	48 8d 35 05 27 00 00 	lea    0x2705(%rip),%rsi        # 404331 <_IO_stdin_used+0x331>
  401c2c:	4c 89 e7             	mov    %r12,%rdi
  401c2f:	b8 00 00 00 00       	mov    $0x0,%eax
  401c34:	e8 a7 f5 ff ff       	callq  4011e0 <sprintf@plt>
  401c39:	ba 09 00 00 00       	mov    $0x9,%edx
  401c3e:	4c 89 e6             	mov    %r12,%rsi
  401c41:	48 89 df             	mov    %rbx,%rdi
  401c44:	e8 17 f4 ff ff       	callq  401060 <strncmp@plt>
  401c49:	85 c0                	test   %eax,%eax
  401c4b:	0f 94 c0             	sete   %al
  401c4e:	0f b6 c0             	movzbl %al,%eax
  401c51:	48 83 c4 70          	add    $0x70,%rsp
  401c55:	5b                   	pop    %rbx
  401c56:	5d                   	pop    %rbp
  401c57:	41 5c                	pop    %r12
  401c59:	c3                   	retq   

0000000000401c5a <touch3>:
  401c5a:	53                   	push   %rbx
  401c5b:	48 89 fb             	mov    %rdi,%rbx
  401c5e:	c7 05 98 58 00 00 03 	movl   $0x3,0x5898(%rip)        # 407500 <vlevel>
  401c65:	00 00 00 
  401c68:	48 89 fe             	mov    %rdi,%rsi
  401c6b:	8b 3d 97 58 00 00    	mov    0x5897(%rip),%edi        # 407508 <cookie>
  401c71:	e8 63 ff ff ff       	callq  401bd9 <hexmatch>
  401c76:	85 c0                	test   %eax,%eax
  401c78:	74 28                	je     401ca2 <touch3+0x48>
  401c7a:	48 89 de             	mov    %rbx,%rsi
  401c7d:	48 8d 3d 04 27 00 00 	lea    0x2704(%rip),%rdi        # 404388 <_IO_stdin_used+0x388>
  401c84:	b8 00 00 00 00       	mov    $0x0,%eax
  401c89:	e8 22 f4 ff ff       	callq  4010b0 <printf@plt>
  401c8e:	bf 03 00 00 00       	mov    $0x3,%edi
  401c93:	e8 0d 03 00 00       	callq  401fa5 <validate>
  401c98:	bf 00 00 00 00       	mov    $0x0,%edi
  401c9d:	e8 4e f5 ff ff       	callq  4011f0 <exit@plt>
  401ca2:	48 89 de             	mov    %rbx,%rsi
  401ca5:	48 8d 3d 04 27 00 00 	lea    0x2704(%rip),%rdi        # 4043b0 <_IO_stdin_used+0x3b0>
  401cac:	b8 00 00 00 00       	mov    $0x0,%eax
  401cb1:	e8 fa f3 ff ff       	callq  4010b0 <printf@plt>
  401cb6:	bf 03 00 00 00       	mov    $0x3,%edi
  401cbb:	e8 a3 03 00 00       	callq  402063 <fail>
  401cc0:	eb d6                	jmp    401c98 <touch3+0x3e>

0000000000401cc2 <test>:
  401cc2:	48 83 ec 08          	sub    $0x8,%rsp
  401cc6:	b8 00 00 00 00       	mov    $0x0,%eax
  401ccb:	e8 6b fe ff ff       	callq  401b3b <getbuf>
  401cd0:	89 c6                	mov    %eax,%esi
  401cd2:	48 8d 3d ff 26 00 00 	lea    0x26ff(%rip),%rdi        # 4043d8 <_IO_stdin_used+0x3d8>
  401cd9:	b8 00 00 00 00       	mov    $0x0,%eax
  401cde:	e8 cd f3 ff ff       	callq  4010b0 <printf@plt>
  401ce3:	48 83 c4 08          	add    $0x8,%rsp
  401ce7:	c3                   	retq   

0000000000401ce8 <start_farm>:
  401ce8:	b8 01 00 00 00       	mov    $0x1,%eax
  401ced:	c3                   	retq   

0000000000401cee <getval_370>:
  401cee:	b8 ad 4a 89 c7       	mov    $0xc7894aad,%eax
  401cf3:	c3                   	retq   

0000000000401cf4 <getval_475>:
  401cf4:	b8 48 89 c7 c3       	mov    $0xc3c78948,%eax
  401cf9:	c3                   	retq   

0000000000401cfa <addval_135>:
  401cfa:	8d 87 58 90 90 90    	lea    -0x6f6f6fa8(%rdi),%eax
  401d00:	c3                   	retq   

0000000000401d01 <getval_227>:
  401d01:	b8 35 58 c1 37       	mov    $0x37c15835,%eax
  401d06:	c3                   	retq   

0000000000401d07 <getval_283>:
  401d07:	b8 58 90 90 c3       	mov    $0xc3909058,%eax
  401d0c:	c3                   	retq   

0000000000401d0d <addval_123>:
  401d0d:	8d 87 48 89 c7 c7    	lea    -0x383876b8(%rdi),%eax
  401d13:	c3                   	retq   

0000000000401d14 <getval_351>:
  401d14:	b8 3f 48 89 c7       	mov    $0xc789483f,%eax
  401d19:	c3                   	retq   

0000000000401d1a <setval_183>:
  401d1a:	c7 07 2b 58 c1 3f    	movl   $0x3fc1582b,(%rdi)
  401d20:	c3                   	retq   

0000000000401d21 <mid_farm>:
  401d21:	b8 01 00 00 00       	mov    $0x1,%eax
  401d26:	c3                   	retq   

0000000000401d27 <add_xy>:
  401d27:	48 8d 04 37          	lea    (%rdi,%rsi,1),%rax
  401d2b:	c3                   	retq   

0000000000401d2c <addval_318>:
  401d2c:	8d 87 a2 89 ca c3    	lea    -0x3c35765e(%rdi),%eax
  401d32:	c3                   	retq   

0000000000401d33 <getval_309>:
  401d33:	b8 89 c1 90 c2       	mov    $0xc290c189,%eax
  401d38:	c3                   	retq   

0000000000401d39 <setval_342>:
  401d39:	c7 07 89 c1 78 c9    	movl   $0xc978c189,(%rdi)
  401d3f:	c3                   	retq   

0000000000401d40 <getval_290>:
  401d40:	b8 d2 48 89 e0       	mov    $0xe08948d2,%eax
  401d45:	c3                   	retq   

0000000000401d46 <addval_367>:
  401d46:	8d 87 3b 89 ca c7    	lea    -0x383576c5(%rdi),%eax
  401d4c:	c3                   	retq   

0000000000401d4d <getval_122>:
  401d4d:	b8 89 ca 38 db       	mov    $0xdb38ca89,%eax
  401d52:	c3                   	retq   

0000000000401d53 <setval_422>:
  401d53:	c7 07 39 88 d6 90    	movl   $0x90d68839,(%rdi)
  401d59:	c3                   	retq   

0000000000401d5a <addval_239>:
  401d5a:	8d 87 89 d6 38 c9    	lea    -0x36c72977(%rdi),%eax
  401d60:	c3                   	retq   

0000000000401d61 <getval_439>:
  401d61:	b8 89 ca 18 c0       	mov    $0xc018ca89,%eax
  401d66:	c3                   	retq   

0000000000401d67 <setval_427>:
  401d67:	c7 07 88 ca 08 c0    	movl   $0xc008ca88,(%rdi)
  401d6d:	c3                   	retq   

0000000000401d6e <setval_451>:
  401d6e:	c7 07 89 d6 08 d2    	movl   $0xd208d689,(%rdi)
  401d74:	c3                   	retq   

0000000000401d75 <setval_410>:
  401d75:	c7 07 48 89 e0 c3    	movl   $0xc3e08948,(%rdi)
  401d7b:	c3                   	retq   

0000000000401d7c <addval_280>:
  401d7c:	8d 87 81 c1 20 c9    	lea    -0x36df3e7f(%rdi),%eax
  401d82:	c3                   	retq   

0000000000401d83 <setval_146>:
  401d83:	c7 07 89 c1 92 90    	movl   $0x9092c189,(%rdi)
  401d89:	c3                   	retq   

0000000000401d8a <setval_291>:
  401d8a:	c7 07 7a 8b ca 90    	movl   $0x90ca8b7a,(%rdi)
  401d90:	c3                   	retq   

0000000000401d91 <addval_114>:
  401d91:	8d 87 68 81 ca c3    	lea    -0x3c357e98(%rdi),%eax
  401d97:	c3                   	retq   

0000000000401d98 <getval_301>:
  401d98:	b8 48 89 e0 c7       	mov    $0xc7e08948,%eax
  401d9d:	c3                   	retq   

0000000000401d9e <setval_355>:
  401d9e:	c7 07 89 ca 94 c9    	movl   $0xc994ca89,(%rdi)
  401da4:	c3                   	retq   

0000000000401da5 <addval_196>:
  401da5:	8d 87 89 d6 94 db    	lea    -0x246b2977(%rdi),%eax
  401dab:	c3                   	retq   

0000000000401dac <setval_414>:
  401dac:	c7 07 48 89 e0 91    	movl   $0x91e08948,(%rdi)
  401db2:	c3                   	retq   

0000000000401db3 <getval_420>:
  401db3:	b8 48 89 e0 94       	mov    $0x94e08948,%eax
  401db8:	c3                   	retq   

0000000000401db9 <setval_397>:
  401db9:	c7 07 4c 89 e0 c3    	movl   $0xc3e0894c,(%rdi)
  401dbf:	c3                   	retq   

0000000000401dc0 <addval_386>:
  401dc0:	8d 87 48 c9 e0 c3    	lea    -0x3c1f36b8(%rdi),%eax
  401dc6:	c3                   	retq   

0000000000401dc7 <setval_130>:
  401dc7:	c7 07 89 d6 90 c2    	movl   $0xc290d689,(%rdi)
  401dcd:	c3                   	retq   

0000000000401dce <setval_364>:
  401dce:	c7 07 8d d6 08 c0    	movl   $0xc008d68d,(%rdi)
  401dd4:	c3                   	retq   

0000000000401dd5 <getval_241>:
  401dd5:	b8 89 c1 08 d2       	mov    $0xd208c189,%eax
  401dda:	c3                   	retq   

0000000000401ddb <setval_379>:
  401ddb:	c7 07 89 c1 18 db    	movl   $0xdb18c189,(%rdi)
  401de1:	c3                   	retq   

0000000000401de2 <getval_440>:
  401de2:	b8 89 c1 20 c9       	mov    $0xc920c189,%eax
  401de7:	c3                   	retq   

0000000000401de8 <setval_326>:
  401de8:	c7 07 89 d6 48 db    	movl   $0xdb48d689,(%rdi)
  401dee:	c3                   	retq   

0000000000401def <addval_272>:
  401def:	8d 87 48 89 e0 91    	lea    -0x6e1f76b8(%rdi),%eax
  401df5:	c3                   	retq   

0000000000401df6 <setval_129>:
  401df6:	c7 07 8b c1 84 d2    	movl   $0xd284c18b,(%rdi)
  401dfc:	c3                   	retq   

0000000000401dfd <getval_478>:
  401dfd:	b8 88 d6 c3 62       	mov    $0x62c3d688,%eax
  401e02:	c3                   	retq   

0000000000401e03 <end_farm>:
  401e03:	b8 01 00 00 00       	mov    $0x1,%eax
  401e08:	c3                   	retq   

0000000000401e09 <save_char>:
  401e09:	8b 05 15 63 00 00    	mov    0x6315(%rip),%eax        # 408124 <gets_cnt>
  401e0f:	3d ff 03 00 00       	cmp    $0x3ff,%eax
  401e14:	7f 4a                	jg     401e60 <save_char+0x57>
  401e16:	89 f9                	mov    %edi,%ecx
  401e18:	c0 e9 04             	shr    $0x4,%cl
  401e1b:	8d 14 40             	lea    (%rax,%rax,2),%edx
  401e1e:	4c 8d 05 2b 28 00 00 	lea    0x282b(%rip),%r8        # 404650 <trans_char>
  401e25:	83 e1 0f             	and    $0xf,%ecx
  401e28:	45 0f b6 0c 08       	movzbl (%r8,%rcx,1),%r9d
  401e2d:	48 8d 0d ec 56 00 00 	lea    0x56ec(%rip),%rcx        # 407520 <gets_buf>
  401e34:	48 63 f2             	movslq %edx,%rsi
  401e37:	44 88 0c 31          	mov    %r9b,(%rcx,%rsi,1)
  401e3b:	8d 72 01             	lea    0x1(%rdx),%esi
  401e3e:	83 e7 0f             	and    $0xf,%edi
  401e41:	41 0f b6 3c 38       	movzbl (%r8,%rdi,1),%edi
  401e46:	48 63 f6             	movslq %esi,%rsi
  401e49:	40 88 3c 31          	mov    %dil,(%rcx,%rsi,1)
  401e4d:	83 c2 02             	add    $0x2,%edx
  401e50:	48 63 d2             	movslq %edx,%rdx
  401e53:	c6 04 11 20          	movb   $0x20,(%rcx,%rdx,1)
  401e57:	83 c0 01             	add    $0x1,%eax
  401e5a:	89 05 c4 62 00 00    	mov    %eax,0x62c4(%rip)        # 408124 <gets_cnt>
  401e60:	c3                   	retq   

0000000000401e61 <save_term>:
  401e61:	8b 05 bd 62 00 00    	mov    0x62bd(%rip),%eax        # 408124 <gets_cnt>
  401e67:	8d 04 40             	lea    (%rax,%rax,2),%eax
  401e6a:	48 98                	cltq   
  401e6c:	48 8d 15 ad 56 00 00 	lea    0x56ad(%rip),%rdx        # 407520 <gets_buf>
  401e73:	c6 04 02 00          	movb   $0x0,(%rdx,%rax,1)
  401e77:	c3                   	retq   

0000000000401e78 <check_fail>:
  401e78:	48 83 ec 08          	sub    $0x8,%rsp
  401e7c:	0f be 35 a5 62 00 00 	movsbl 0x62a5(%rip),%esi        # 408128 <target_prefix>
  401e83:	48 8d 0d 96 56 00 00 	lea    0x5696(%rip),%rcx        # 407520 <gets_buf>
  401e8a:	8b 15 6c 56 00 00    	mov    0x566c(%rip),%edx        # 4074fc <check_level>
  401e90:	48 8d 3d 64 25 00 00 	lea    0x2564(%rip),%rdi        # 4043fb <_IO_stdin_used+0x3fb>
  401e97:	b8 00 00 00 00       	mov    $0x0,%eax
  401e9c:	e8 0f f2 ff ff       	callq  4010b0 <printf@plt>
  401ea1:	bf 01 00 00 00       	mov    $0x1,%edi
  401ea6:	e8 45 f3 ff ff       	callq  4011f0 <exit@plt>

0000000000401eab <Gets>:
  401eab:	41 54                	push   %r12
  401ead:	55                   	push   %rbp
  401eae:	53                   	push   %rbx
  401eaf:	49 89 fc             	mov    %rdi,%r12
  401eb2:	c7 05 68 62 00 00 00 	movl   $0x0,0x6268(%rip)        # 408124 <gets_cnt>
  401eb9:	00 00 00 
  401ebc:	48 89 fb             	mov    %rdi,%rbx
  401ebf:	48 8b 3d 2a 56 00 00 	mov    0x562a(%rip),%rdi        # 4074f0 <infile>
  401ec6:	e8 45 f3 ff ff       	callq  401210 <getc@plt>
  401ecb:	83 f8 ff             	cmp    $0xffffffff,%eax
  401ece:	74 18                	je     401ee8 <Gets+0x3d>
  401ed0:	83 f8 0a             	cmp    $0xa,%eax
  401ed3:	74 13                	je     401ee8 <Gets+0x3d>
  401ed5:	48 8d 6b 01          	lea    0x1(%rbx),%rbp
  401ed9:	88 03                	mov    %al,(%rbx)
  401edb:	0f b6 f8             	movzbl %al,%edi
  401ede:	e8 26 ff ff ff       	callq  401e09 <save_char>
  401ee3:	48 89 eb             	mov    %rbp,%rbx
  401ee6:	eb d7                	jmp    401ebf <Gets+0x14>
  401ee8:	c6 03 00             	movb   $0x0,(%rbx)
  401eeb:	b8 00 00 00 00       	mov    $0x0,%eax
  401ef0:	e8 6c ff ff ff       	callq  401e61 <save_term>
  401ef5:	4c 89 e0             	mov    %r12,%rax
  401ef8:	5b                   	pop    %rbx
  401ef9:	5d                   	pop    %rbp
  401efa:	41 5c                	pop    %r12
  401efc:	c3                   	retq   

0000000000401efd <notify_server>:
  401efd:	83 3d 08 56 00 00 00 	cmpl   $0x0,0x5608(%rip)        # 40750c <is_checker>
  401f04:	0f 85 9a 00 00 00    	jne    401fa4 <notify_server+0xa7>
  401f0a:	53                   	push   %rbx
  401f0b:	48 81 ec 00 20 00 00 	sub    $0x2000,%rsp
  401f12:	81 3d 08 62 00 00 9c 	cmpl   $0x1f9c,0x6208(%rip)        # 408124 <gets_cnt>
  401f19:	1f 00 00 
  401f1c:	7f 5a                	jg     401f78 <notify_server+0x7b>
  401f1e:	44 0f be 0d 02 62 00 	movsbl 0x6202(%rip),%r9d        # 408128 <target_prefix>
  401f25:	00 
  401f26:	83 3d cb 55 00 00 00 	cmpl   $0x0,0x55cb(%rip)        # 4074f8 <notify>
  401f2d:	74 64                	je     401f93 <notify_server+0x96>
  401f2f:	44 8b 05 ce 55 00 00 	mov    0x55ce(%rip),%r8d        # 407504 <authkey>
  401f36:	85 ff                	test   %edi,%edi
  401f38:	74 61                	je     401f9b <notify_server+0x9e>
  401f3a:	48 8d 1d d5 24 00 00 	lea    0x24d5(%rip),%rbx        # 404416 <_IO_stdin_used+0x416>
  401f41:	48 89 e7             	mov    %rsp,%rdi
  401f44:	48 8d 05 d5 55 00 00 	lea    0x55d5(%rip),%rax        # 407520 <gets_buf>
  401f4b:	50                   	push   %rax
  401f4c:	56                   	push   %rsi
  401f4d:	48 89 d9             	mov    %rbx,%rcx
  401f50:	8b 15 da 51 00 00    	mov    0x51da(%rip),%edx        # 407130 <target_id>
  401f56:	48 8d 35 be 24 00 00 	lea    0x24be(%rip),%rsi        # 40441b <_IO_stdin_used+0x41b>
  401f5d:	b8 00 00 00 00       	mov    $0x0,%eax
  401f62:	e8 79 f2 ff ff       	callq  4011e0 <sprintf@plt>
  401f67:	48 89 df             	mov    %rbx,%rdi
  401f6a:	e8 11 f1 ff ff       	callq  401080 <puts@plt>
  401f6f:	48 81 c4 10 20 00 00 	add    $0x2010,%rsp
  401f76:	5b                   	pop    %rbx
  401f77:	c3                   	retq   
  401f78:	48 8d 3d 61 25 00 00 	lea    0x2561(%rip),%rdi        # 4044e0 <_IO_stdin_used+0x4e0>
  401f7f:	b8 00 00 00 00       	mov    $0x0,%eax
  401f84:	e8 27 f1 ff ff       	callq  4010b0 <printf@plt>
  401f89:	bf 01 00 00 00       	mov    $0x1,%edi
  401f8e:	e8 5d f2 ff ff       	callq  4011f0 <exit@plt>
  401f93:	41 b8 ff ff ff ff    	mov    $0xffffffff,%r8d
  401f99:	eb 9b                	jmp    401f36 <notify_server+0x39>
  401f9b:	48 8d 1d 6f 24 00 00 	lea    0x246f(%rip),%rbx        # 404411 <_IO_stdin_used+0x411>
  401fa2:	eb 9d                	jmp    401f41 <notify_server+0x44>
  401fa4:	c3                   	retq   

0000000000401fa5 <validate>:
  401fa5:	53                   	push   %rbx
  401fa6:	89 fb                	mov    %edi,%ebx
  401fa8:	83 3d 5d 55 00 00 00 	cmpl   $0x0,0x555d(%rip)        # 40750c <is_checker>
  401faf:	74 68                	je     402019 <validate+0x74>
  401fb1:	39 3d 49 55 00 00    	cmp    %edi,0x5549(%rip)        # 407500 <vlevel>
  401fb7:	75 2d                	jne    401fe6 <validate+0x41>
  401fb9:	8b 35 3d 55 00 00    	mov    0x553d(%rip),%esi        # 4074fc <check_level>
  401fbf:	39 fe                	cmp    %edi,%esi
  401fc1:	75 39                	jne    401ffc <validate+0x57>
  401fc3:	0f be 35 5e 61 00 00 	movsbl 0x615e(%rip),%esi        # 408128 <target_prefix>
  401fca:	48 8d 0d 4f 55 00 00 	lea    0x554f(%rip),%rcx        # 407520 <gets_buf>
  401fd1:	89 fa                	mov    %edi,%edx
  401fd3:	48 8d 3d 7b 24 00 00 	lea    0x247b(%rip),%rdi        # 404455 <_IO_stdin_used+0x455>
  401fda:	b8 00 00 00 00       	mov    $0x0,%eax
  401fdf:	e8 cc f0 ff ff       	callq  4010b0 <printf@plt>
  401fe4:	5b                   	pop    %rbx
  401fe5:	c3                   	retq   
  401fe6:	48 8d 3d 4a 24 00 00 	lea    0x244a(%rip),%rdi        # 404437 <_IO_stdin_used+0x437>
  401fed:	e8 8e f0 ff ff       	callq  401080 <puts@plt>
  401ff2:	b8 00 00 00 00       	mov    $0x0,%eax
  401ff7:	e8 7c fe ff ff       	callq  401e78 <check_fail>
  401ffc:	89 fa                	mov    %edi,%edx
  401ffe:	48 8d 3d 0b 25 00 00 	lea    0x250b(%rip),%rdi        # 404510 <_IO_stdin_used+0x510>
  402005:	b8 00 00 00 00       	mov    $0x0,%eax
  40200a:	e8 a1 f0 ff ff       	callq  4010b0 <printf@plt>
  40200f:	b8 00 00 00 00       	mov    $0x0,%eax
  402014:	e8 5f fe ff ff       	callq  401e78 <check_fail>
  402019:	39 3d e1 54 00 00    	cmp    %edi,0x54e1(%rip)        # 407500 <vlevel>
  40201f:	74 1a                	je     40203b <validate+0x96>
  402021:	48 8d 3d 0f 24 00 00 	lea    0x240f(%rip),%rdi        # 404437 <_IO_stdin_used+0x437>
  402028:	e8 53 f0 ff ff       	callq  401080 <puts@plt>
  40202d:	89 de                	mov    %ebx,%esi
  40202f:	bf 00 00 00 00       	mov    $0x0,%edi
  402034:	e8 c4 fe ff ff       	callq  401efd <notify_server>
  402039:	eb a9                	jmp    401fe4 <validate+0x3f>
  40203b:	0f be 15 e6 60 00 00 	movsbl 0x60e6(%rip),%edx        # 408128 <target_prefix>
  402042:	89 fe                	mov    %edi,%esi
  402044:	48 8d 3d ed 24 00 00 	lea    0x24ed(%rip),%rdi        # 404538 <_IO_stdin_used+0x538>
  40204b:	b8 00 00 00 00       	mov    $0x0,%eax
  402050:	e8 5b f0 ff ff       	callq  4010b0 <printf@plt>
  402055:	89 de                	mov    %ebx,%esi
  402057:	bf 01 00 00 00       	mov    $0x1,%edi
  40205c:	e8 9c fe ff ff       	callq  401efd <notify_server>
  402061:	eb 81                	jmp    401fe4 <validate+0x3f>

0000000000402063 <fail>:
  402063:	48 83 ec 08          	sub    $0x8,%rsp
  402067:	83 3d 9e 54 00 00 00 	cmpl   $0x0,0x549e(%rip)        # 40750c <is_checker>
  40206e:	75 11                	jne    402081 <fail+0x1e>
  402070:	89 fe                	mov    %edi,%esi
  402072:	bf 00 00 00 00       	mov    $0x0,%edi
  402077:	e8 81 fe ff ff       	callq  401efd <notify_server>
  40207c:	48 83 c4 08          	add    $0x8,%rsp
  402080:	c3                   	retq   
  402081:	b8 00 00 00 00       	mov    $0x0,%eax
  402086:	e8 ed fd ff ff       	callq  401e78 <check_fail>

000000000040208b <bushandler>:
  40208b:	48 83 ec 08          	sub    $0x8,%rsp
  40208f:	83 3d 76 54 00 00 00 	cmpl   $0x0,0x5476(%rip)        # 40750c <is_checker>
  402096:	74 16                	je     4020ae <bushandler+0x23>
  402098:	48 8d 3d cb 23 00 00 	lea    0x23cb(%rip),%rdi        # 40446a <_IO_stdin_used+0x46a>
  40209f:	e8 dc ef ff ff       	callq  401080 <puts@plt>
  4020a4:	b8 00 00 00 00       	mov    $0x0,%eax
  4020a9:	e8 ca fd ff ff       	callq  401e78 <check_fail>
  4020ae:	48 8d 3d bb 24 00 00 	lea    0x24bb(%rip),%rdi        # 404570 <_IO_stdin_used+0x570>
  4020b5:	e8 c6 ef ff ff       	callq  401080 <puts@plt>
  4020ba:	48 8d 3d b3 23 00 00 	lea    0x23b3(%rip),%rdi        # 404474 <_IO_stdin_used+0x474>
  4020c1:	e8 ba ef ff ff       	callq  401080 <puts@plt>
  4020c6:	be 00 00 00 00       	mov    $0x0,%esi
  4020cb:	bf 00 00 00 00       	mov    $0x0,%edi
  4020d0:	e8 28 fe ff ff       	callq  401efd <notify_server>
  4020d5:	bf 01 00 00 00       	mov    $0x1,%edi
  4020da:	e8 11 f1 ff ff       	callq  4011f0 <exit@plt>

00000000004020df <seghandler>:
  4020df:	48 83 ec 08          	sub    $0x8,%rsp
  4020e3:	83 3d 22 54 00 00 00 	cmpl   $0x0,0x5422(%rip)        # 40750c <is_checker>
  4020ea:	74 16                	je     402102 <seghandler+0x23>
  4020ec:	48 8d 3d 97 23 00 00 	lea    0x2397(%rip),%rdi        # 40448a <_IO_stdin_used+0x48a>
  4020f3:	e8 88 ef ff ff       	callq  401080 <puts@plt>
  4020f8:	b8 00 00 00 00       	mov    $0x0,%eax
  4020fd:	e8 76 fd ff ff       	callq  401e78 <check_fail>
  402102:	48 8d 3d 87 24 00 00 	lea    0x2487(%rip),%rdi        # 404590 <_IO_stdin_used+0x590>
  402109:	e8 72 ef ff ff       	callq  401080 <puts@plt>
  40210e:	48 8d 3d 5f 23 00 00 	lea    0x235f(%rip),%rdi        # 404474 <_IO_stdin_used+0x474>
  402115:	e8 66 ef ff ff       	callq  401080 <puts@plt>
  40211a:	be 00 00 00 00       	mov    $0x0,%esi
  40211f:	bf 00 00 00 00       	mov    $0x0,%edi
  402124:	e8 d4 fd ff ff       	callq  401efd <notify_server>
  402129:	bf 01 00 00 00       	mov    $0x1,%edi
  40212e:	e8 bd f0 ff ff       	callq  4011f0 <exit@plt>

0000000000402133 <illegalhandler>:
  402133:	48 83 ec 08          	sub    $0x8,%rsp
  402137:	83 3d ce 53 00 00 00 	cmpl   $0x0,0x53ce(%rip)        # 40750c <is_checker>
  40213e:	74 16                	je     402156 <illegalhandler+0x23>
  402140:	48 8d 3d 56 23 00 00 	lea    0x2356(%rip),%rdi        # 40449d <_IO_stdin_used+0x49d>
  402147:	e8 34 ef ff ff       	callq  401080 <puts@plt>
  40214c:	b8 00 00 00 00       	mov    $0x0,%eax
  402151:	e8 22 fd ff ff       	callq  401e78 <check_fail>
  402156:	48 8d 3d 5b 24 00 00 	lea    0x245b(%rip),%rdi        # 4045b8 <_IO_stdin_used+0x5b8>
  40215d:	e8 1e ef ff ff       	callq  401080 <puts@plt>
  402162:	48 8d 3d 0b 23 00 00 	lea    0x230b(%rip),%rdi        # 404474 <_IO_stdin_used+0x474>
  402169:	e8 12 ef ff ff       	callq  401080 <puts@plt>
  40216e:	be 00 00 00 00       	mov    $0x0,%esi
  402173:	bf 00 00 00 00       	mov    $0x0,%edi
  402178:	e8 80 fd ff ff       	callq  401efd <notify_server>
  40217d:	bf 01 00 00 00       	mov    $0x1,%edi
  402182:	e8 69 f0 ff ff       	callq  4011f0 <exit@plt>

0000000000402187 <sigalrmhandler>:
  402187:	48 83 ec 08          	sub    $0x8,%rsp
  40218b:	83 3d 7a 53 00 00 00 	cmpl   $0x0,0x537a(%rip)        # 40750c <is_checker>
  402192:	74 16                	je     4021aa <sigalrmhandler+0x23>
  402194:	48 8d 3d 16 23 00 00 	lea    0x2316(%rip),%rdi        # 4044b1 <_IO_stdin_used+0x4b1>
  40219b:	e8 e0 ee ff ff       	callq  401080 <puts@plt>
  4021a0:	b8 00 00 00 00       	mov    $0x0,%eax
  4021a5:	e8 ce fc ff ff       	callq  401e78 <check_fail>
  4021aa:	be 05 00 00 00       	mov    $0x5,%esi
  4021af:	48 8d 3d 32 24 00 00 	lea    0x2432(%rip),%rdi        # 4045e8 <_IO_stdin_used+0x5e8>
  4021b6:	b8 00 00 00 00       	mov    $0x0,%eax
  4021bb:	e8 f0 ee ff ff       	callq  4010b0 <printf@plt>
  4021c0:	be 00 00 00 00       	mov    $0x0,%esi
  4021c5:	bf 00 00 00 00       	mov    $0x0,%edi
  4021ca:	e8 2e fd ff ff       	callq  401efd <notify_server>
  4021cf:	bf 01 00 00 00       	mov    $0x1,%edi
  4021d4:	e8 17 f0 ff ff       	callq  4011f0 <exit@plt>

00000000004021d9 <launch>:
  4021d9:	55                   	push   %rbp
  4021da:	48 89 e5             	mov    %rsp,%rbp
  4021dd:	48 89 fa             	mov    %rdi,%rdx
  4021e0:	48 8d 47 17          	lea    0x17(%rdi),%rax
  4021e4:	48 83 e0 f0          	and    $0xfffffffffffffff0,%rax
  4021e8:	48 29 c4             	sub    %rax,%rsp
  4021eb:	48 8d 7c 24 0f       	lea    0xf(%rsp),%rdi
  4021f0:	48 83 e7 f0          	and    $0xfffffffffffffff0,%rdi
  4021f4:	be f4 00 00 00       	mov    $0xf4,%esi
  4021f9:	e8 c2 ee ff ff       	callq  4010c0 <memset@plt>
  4021fe:	48 8b 05 9b 52 00 00 	mov    0x529b(%rip),%rax        # 4074a0 <stdin@@GLIBC_2.2.5>
  402205:	48 39 05 e4 52 00 00 	cmp    %rax,0x52e4(%rip)        # 4074f0 <infile>
  40220c:	74 2b                	je     402239 <launch+0x60>
  40220e:	c7 05 e8 52 00 00 00 	movl   $0x0,0x52e8(%rip)        # 407500 <vlevel>
  402215:	00 00 00 
  402218:	b8 00 00 00 00       	mov    $0x0,%eax
  40221d:	e8 a0 fa ff ff       	callq  401cc2 <test>
  402222:	83 3d e3 52 00 00 00 	cmpl   $0x0,0x52e3(%rip)        # 40750c <is_checker>
  402229:	75 21                	jne    40224c <launch+0x73>
  40222b:	48 8d 3d 9f 22 00 00 	lea    0x229f(%rip),%rdi        # 4044d1 <_IO_stdin_used+0x4d1>
  402232:	e8 49 ee ff ff       	callq  401080 <puts@plt>
  402237:	c9                   	leaveq 
  402238:	c3                   	retq   
  402239:	48 8d 3d 79 22 00 00 	lea    0x2279(%rip),%rdi        # 4044b9 <_IO_stdin_used+0x4b9>
  402240:	b8 00 00 00 00       	mov    $0x0,%eax
  402245:	e8 66 ee ff ff       	callq  4010b0 <printf@plt>
  40224a:	eb c2                	jmp    40220e <launch+0x35>
  40224c:	48 8d 3d 73 22 00 00 	lea    0x2273(%rip),%rdi        # 4044c6 <_IO_stdin_used+0x4c6>
  402253:	e8 28 ee ff ff       	callq  401080 <puts@plt>
  402258:	b8 00 00 00 00       	mov    $0x0,%eax
  40225d:	e8 16 fc ff ff       	callq  401e78 <check_fail>

0000000000402262 <stable_launch>:
  402262:	53                   	push   %rbx
  402263:	48 89 3d 7e 52 00 00 	mov    %rdi,0x527e(%rip)        # 4074e8 <global_offset>
  40226a:	41 b9 00 00 00 00    	mov    $0x0,%r9d
  402270:	41 b8 00 00 00 00    	mov    $0x0,%r8d
  402276:	b9 32 01 00 00       	mov    $0x132,%ecx
  40227b:	ba 07 00 00 00       	mov    $0x7,%edx
  402280:	be 00 00 10 00       	mov    $0x100000,%esi
  402285:	bf 00 60 58 55       	mov    $0x55586000,%edi
  40228a:	e8 11 ee ff ff       	callq  4010a0 <mmap@plt>
  40228f:	48 89 c3             	mov    %rax,%rbx
  402292:	48 3d 00 60 58 55    	cmp    $0x55586000,%rax
  402298:	75 43                	jne    4022dd <stable_launch+0x7b>
  40229a:	48 8d 90 f8 ff 0f 00 	lea    0xffff8(%rax),%rdx
  4022a1:	48 89 15 88 5e 00 00 	mov    %rdx,0x5e88(%rip)        # 408130 <stack_top>
  4022a8:	48 89 e0             	mov    %rsp,%rax
  4022ab:	48 89 d4             	mov    %rdx,%rsp
  4022ae:	48 89 c2             	mov    %rax,%rdx
  4022b1:	48 89 15 28 52 00 00 	mov    %rdx,0x5228(%rip)        # 4074e0 <global_save_stack>
  4022b8:	48 8b 3d 29 52 00 00 	mov    0x5229(%rip),%rdi        # 4074e8 <global_offset>
  4022bf:	e8 15 ff ff ff       	callq  4021d9 <launch>
  4022c4:	48 8b 05 15 52 00 00 	mov    0x5215(%rip),%rax        # 4074e0 <global_save_stack>
  4022cb:	48 89 c4             	mov    %rax,%rsp
  4022ce:	be 00 00 10 00       	mov    $0x100000,%esi
  4022d3:	48 89 df             	mov    %rbx,%rdi
  4022d6:	e8 a5 ee ff ff       	callq  401180 <munmap@plt>
  4022db:	5b                   	pop    %rbx
  4022dc:	c3                   	retq   
  4022dd:	be 00 00 10 00       	mov    $0x100000,%esi
  4022e2:	48 89 c7             	mov    %rax,%rdi
  4022e5:	e8 96 ee ff ff       	callq  401180 <munmap@plt>
  4022ea:	ba 00 60 58 55       	mov    $0x55586000,%edx
  4022ef:	48 8d 35 2a 23 00 00 	lea    0x232a(%rip),%rsi        # 404620 <_IO_stdin_used+0x620>
  4022f6:	48 8b 3d c3 51 00 00 	mov    0x51c3(%rip),%rdi        # 4074c0 <stderr@@GLIBC_2.2.5>
  4022fd:	b8 00 00 00 00       	mov    $0x0,%eax
  402302:	e8 19 ee ff ff       	callq  401120 <fprintf@plt>
  402307:	bf 01 00 00 00       	mov    $0x1,%edi
  40230c:	e8 df ee ff ff       	callq  4011f0 <exit@plt>

0000000000402311 <rio_readinitb>:
  402311:	89 37                	mov    %esi,(%rdi)
  402313:	c7 47 04 00 00 00 00 	movl   $0x0,0x4(%rdi)
  40231a:	48 8d 47 10          	lea    0x10(%rdi),%rax
  40231e:	48 89 47 08          	mov    %rax,0x8(%rdi)
  402322:	c3                   	retq   

0000000000402323 <sigalrm_handler>:
  402323:	48 83 ec 08          	sub    $0x8,%rsp
  402327:	ba 00 00 00 00       	mov    $0x0,%edx
  40232c:	48 8d 35 2d 23 00 00 	lea    0x232d(%rip),%rsi        # 404660 <trans_char+0x10>
  402333:	48 8b 3d 86 51 00 00 	mov    0x5186(%rip),%rdi        # 4074c0 <stderr@@GLIBC_2.2.5>
  40233a:	b8 00 00 00 00       	mov    $0x0,%eax
  40233f:	e8 dc ed ff ff       	callq  401120 <fprintf@plt>
  402344:	bf 01 00 00 00       	mov    $0x1,%edi
  402349:	e8 a2 ee ff ff       	callq  4011f0 <exit@plt>

000000000040234e <urlencode>:
  40234e:	41 54                	push   %r12
  402350:	55                   	push   %rbp
  402351:	53                   	push   %rbx
  402352:	48 83 ec 10          	sub    $0x10,%rsp
  402356:	48 89 fb             	mov    %rdi,%rbx
  402359:	48 89 f5             	mov    %rsi,%rbp
  40235c:	48 c7 c1 ff ff ff ff 	mov    $0xffffffffffffffff,%rcx
  402363:	b8 00 00 00 00       	mov    $0x0,%eax
  402368:	f2 ae                	repnz scas %es:(%rdi),%al
  40236a:	48 89 ce             	mov    %rcx,%rsi
  40236d:	48 f7 d6             	not    %rsi
  402370:	8d 46 ff             	lea    -0x1(%rsi),%eax
  402373:	eb 0e                	jmp    402383 <urlencode+0x35>
  402375:	88 55 00             	mov    %dl,0x0(%rbp)
  402378:	48 8d 6d 01          	lea    0x1(%rbp),%rbp
  40237c:	48 83 c3 01          	add    $0x1,%rbx
  402380:	44 89 e0             	mov    %r12d,%eax
  402383:	44 8d 60 ff          	lea    -0x1(%rax),%r12d
  402387:	85 c0                	test   %eax,%eax
  402389:	0f 84 95 00 00 00    	je     402424 <urlencode+0xd6>
  40238f:	0f b6 13             	movzbl (%rbx),%edx
  402392:	80 fa 2a             	cmp    $0x2a,%dl
  402395:	0f 94 c1             	sete   %cl
  402398:	80 fa 2d             	cmp    $0x2d,%dl
  40239b:	0f 94 c0             	sete   %al
  40239e:	08 c1                	or     %al,%cl
  4023a0:	75 d3                	jne    402375 <urlencode+0x27>
  4023a2:	80 fa 2e             	cmp    $0x2e,%dl
  4023a5:	74 ce                	je     402375 <urlencode+0x27>
  4023a7:	80 fa 5f             	cmp    $0x5f,%dl
  4023aa:	74 c9                	je     402375 <urlencode+0x27>
  4023ac:	8d 42 d0             	lea    -0x30(%rdx),%eax
  4023af:	3c 09                	cmp    $0x9,%al
  4023b1:	76 c2                	jbe    402375 <urlencode+0x27>
  4023b3:	8d 42 bf             	lea    -0x41(%rdx),%eax
  4023b6:	3c 19                	cmp    $0x19,%al
  4023b8:	76 bb                	jbe    402375 <urlencode+0x27>
  4023ba:	8d 42 9f             	lea    -0x61(%rdx),%eax
  4023bd:	3c 19                	cmp    $0x19,%al
  4023bf:	76 b4                	jbe    402375 <urlencode+0x27>
  4023c1:	80 fa 20             	cmp    $0x20,%dl
  4023c4:	74 4c                	je     402412 <urlencode+0xc4>
  4023c6:	8d 42 e0             	lea    -0x20(%rdx),%eax
  4023c9:	3c 5f                	cmp    $0x5f,%al
  4023cb:	0f 96 c1             	setbe  %cl
  4023ce:	80 fa 09             	cmp    $0x9,%dl
  4023d1:	0f 94 c0             	sete   %al
  4023d4:	08 c1                	or     %al,%cl
  4023d6:	74 47                	je     40241f <urlencode+0xd1>
  4023d8:	0f b6 d2             	movzbl %dl,%edx
  4023db:	48 8d 7c 24 08       	lea    0x8(%rsp),%rdi
  4023e0:	48 8d 35 11 23 00 00 	lea    0x2311(%rip),%rsi        # 4046f8 <trans_char+0xa8>
  4023e7:	b8 00 00 00 00       	mov    $0x0,%eax
  4023ec:	e8 ef ed ff ff       	callq  4011e0 <sprintf@plt>
  4023f1:	0f b6 44 24 08       	movzbl 0x8(%rsp),%eax
  4023f6:	88 45 00             	mov    %al,0x0(%rbp)
  4023f9:	0f b6 44 24 09       	movzbl 0x9(%rsp),%eax
  4023fe:	88 45 01             	mov    %al,0x1(%rbp)
  402401:	0f b6 44 24 0a       	movzbl 0xa(%rsp),%eax
  402406:	88 45 02             	mov    %al,0x2(%rbp)
  402409:	48 8d 6d 03          	lea    0x3(%rbp),%rbp
  40240d:	e9 6a ff ff ff       	jmpq   40237c <urlencode+0x2e>
  402412:	c6 45 00 2b          	movb   $0x2b,0x0(%rbp)
  402416:	48 8d 6d 01          	lea    0x1(%rbp),%rbp
  40241a:	e9 5d ff ff ff       	jmpq   40237c <urlencode+0x2e>
  40241f:	b8 ff ff ff ff       	mov    $0xffffffff,%eax
  402424:	48 83 c4 10          	add    $0x10,%rsp
  402428:	5b                   	pop    %rbx
  402429:	5d                   	pop    %rbp
  40242a:	41 5c                	pop    %r12
  40242c:	c3                   	retq   

000000000040242d <rio_writen>:
  40242d:	41 55                	push   %r13
  40242f:	41 54                	push   %r12
  402431:	55                   	push   %rbp
  402432:	53                   	push   %rbx
  402433:	48 83 ec 08          	sub    $0x8,%rsp
  402437:	41 89 fc             	mov    %edi,%r12d
  40243a:	48 89 f5             	mov    %rsi,%rbp
  40243d:	49 89 d5             	mov    %rdx,%r13
  402440:	48 89 d3             	mov    %rdx,%rbx
  402443:	eb 06                	jmp    40244b <rio_writen+0x1e>
  402445:	48 29 c3             	sub    %rax,%rbx
  402448:	48 01 c5             	add    %rax,%rbp
  40244b:	48 85 db             	test   %rbx,%rbx
  40244e:	74 24                	je     402474 <rio_writen+0x47>
  402450:	48 89 da             	mov    %rbx,%rdx
  402453:	48 89 ee             	mov    %rbp,%rsi
  402456:	44 89 e7             	mov    %r12d,%edi
  402459:	e8 32 ec ff ff       	callq  401090 <write@plt>
  40245e:	48 85 c0             	test   %rax,%rax
  402461:	7f e2                	jg     402445 <rio_writen+0x18>
  402463:	e8 d8 eb ff ff       	callq  401040 <__errno_location@plt>
  402468:	83 38 04             	cmpl   $0x4,(%rax)
  40246b:	75 15                	jne    402482 <rio_writen+0x55>
  40246d:	b8 00 00 00 00       	mov    $0x0,%eax
  402472:	eb d1                	jmp    402445 <rio_writen+0x18>
  402474:	4c 89 e8             	mov    %r13,%rax
  402477:	48 83 c4 08          	add    $0x8,%rsp
  40247b:	5b                   	pop    %rbx
  40247c:	5d                   	pop    %rbp
  40247d:	41 5c                	pop    %r12
  40247f:	41 5d                	pop    %r13
  402481:	c3                   	retq   
  402482:	48 c7 c0 ff ff ff ff 	mov    $0xffffffffffffffff,%rax
  402489:	eb ec                	jmp    402477 <rio_writen+0x4a>

000000000040248b <rio_read>:
  40248b:	41 55                	push   %r13
  40248d:	41 54                	push   %r12
  40248f:	55                   	push   %rbp
  402490:	53                   	push   %rbx
  402491:	48 83 ec 08          	sub    $0x8,%rsp
  402495:	48 89 fb             	mov    %rdi,%rbx
  402498:	49 89 f5             	mov    %rsi,%r13
  40249b:	49 89 d4             	mov    %rdx,%r12
  40249e:	eb 0a                	jmp    4024aa <rio_read+0x1f>
  4024a0:	e8 9b eb ff ff       	callq  401040 <__errno_location@plt>
  4024a5:	83 38 04             	cmpl   $0x4,(%rax)
  4024a8:	75 5a                	jne    402504 <rio_read+0x79>
  4024aa:	8b 6b 04             	mov    0x4(%rbx),%ebp
  4024ad:	85 ed                	test   %ebp,%ebp
  4024af:	7f 22                	jg     4024d3 <rio_read+0x48>
  4024b1:	48 8d 6b 10          	lea    0x10(%rbx),%rbp
  4024b5:	ba 00 20 00 00       	mov    $0x2000,%edx
  4024ba:	48 89 ee             	mov    %rbp,%rsi
  4024bd:	8b 3b                	mov    (%rbx),%edi
  4024bf:	e8 2c ec ff ff       	callq  4010f0 <read@plt>
  4024c4:	89 43 04             	mov    %eax,0x4(%rbx)
  4024c7:	85 c0                	test   %eax,%eax
  4024c9:	78 d5                	js     4024a0 <rio_read+0x15>
  4024cb:	74 40                	je     40250d <rio_read+0x82>
  4024cd:	48 89 6b 08          	mov    %rbp,0x8(%rbx)
  4024d1:	eb d7                	jmp    4024aa <rio_read+0x1f>
  4024d3:	89 e8                	mov    %ebp,%eax
  4024d5:	4c 39 e0             	cmp    %r12,%rax
  4024d8:	72 03                	jb     4024dd <rio_read+0x52>
  4024da:	44 89 e5             	mov    %r12d,%ebp
  4024dd:	4c 63 e5             	movslq %ebp,%r12
  4024e0:	48 8b 73 08          	mov    0x8(%rbx),%rsi
  4024e4:	4c 89 e2             	mov    %r12,%rdx
  4024e7:	4c 89 ef             	mov    %r13,%rdi
  4024ea:	e8 51 ec ff ff       	callq  401140 <memcpy@plt>
  4024ef:	4c 01 63 08          	add    %r12,0x8(%rbx)
  4024f3:	29 6b 04             	sub    %ebp,0x4(%rbx)
  4024f6:	4c 89 e0             	mov    %r12,%rax
  4024f9:	48 83 c4 08          	add    $0x8,%rsp
  4024fd:	5b                   	pop    %rbx
  4024fe:	5d                   	pop    %rbp
  4024ff:	41 5c                	pop    %r12
  402501:	41 5d                	pop    %r13
  402503:	c3                   	retq   
  402504:	48 c7 c0 ff ff ff ff 	mov    $0xffffffffffffffff,%rax
  40250b:	eb ec                	jmp    4024f9 <rio_read+0x6e>
  40250d:	b8 00 00 00 00       	mov    $0x0,%eax
  402512:	eb e5                	jmp    4024f9 <rio_read+0x6e>

0000000000402514 <rio_readlineb>:
  402514:	41 55                	push   %r13
  402516:	41 54                	push   %r12
  402518:	55                   	push   %rbp
  402519:	53                   	push   %rbx
  40251a:	48 83 ec 18          	sub    $0x18,%rsp
  40251e:	49 89 fd             	mov    %rdi,%r13
  402521:	48 89 f5             	mov    %rsi,%rbp
  402524:	49 89 d4             	mov    %rdx,%r12
  402527:	bb 01 00 00 00       	mov    $0x1,%ebx
  40252c:	4c 39 e3             	cmp    %r12,%rbx
  40252f:	73 44                	jae    402575 <rio_readlineb+0x61>
  402531:	48 8d 74 24 0f       	lea    0xf(%rsp),%rsi
  402536:	ba 01 00 00 00       	mov    $0x1,%edx
  40253b:	4c 89 ef             	mov    %r13,%rdi
  40253e:	e8 48 ff ff ff       	callq  40248b <rio_read>
  402543:	83 f8 01             	cmp    $0x1,%eax
  402546:	75 19                	jne    402561 <rio_readlineb+0x4d>
  402548:	48 8d 55 01          	lea    0x1(%rbp),%rdx
  40254c:	0f b6 44 24 0f       	movzbl 0xf(%rsp),%eax
  402551:	88 45 00             	mov    %al,0x0(%rbp)
  402554:	3c 0a                	cmp    $0xa,%al
  402556:	74 1a                	je     402572 <rio_readlineb+0x5e>
  402558:	48 83 c3 01          	add    $0x1,%rbx
  40255c:	48 89 d5             	mov    %rdx,%rbp
  40255f:	eb cb                	jmp    40252c <rio_readlineb+0x18>
  402561:	85 c0                	test   %eax,%eax
  402563:	75 22                	jne    402587 <rio_readlineb+0x73>
  402565:	48 83 fb 01          	cmp    $0x1,%rbx
  402569:	75 0a                	jne    402575 <rio_readlineb+0x61>
  40256b:	b8 00 00 00 00       	mov    $0x0,%eax
  402570:	eb 0a                	jmp    40257c <rio_readlineb+0x68>
  402572:	48 89 d5             	mov    %rdx,%rbp
  402575:	c6 45 00 00          	movb   $0x0,0x0(%rbp)
  402579:	48 89 d8             	mov    %rbx,%rax
  40257c:	48 83 c4 18          	add    $0x18,%rsp
  402580:	5b                   	pop    %rbx
  402581:	5d                   	pop    %rbp
  402582:	41 5c                	pop    %r12
  402584:	41 5d                	pop    %r13
  402586:	c3                   	retq   
  402587:	48 c7 c0 ff ff ff ff 	mov    $0xffffffffffffffff,%rax
  40258e:	eb ec                	jmp    40257c <rio_readlineb+0x68>

0000000000402590 <submitr>:
  402590:	41 57                	push   %r15
  402592:	41 56                	push   %r14
  402594:	41 55                	push   %r13
  402596:	41 54                	push   %r12
  402598:	55                   	push   %rbp
  402599:	53                   	push   %rbx
  40259a:	48 81 ec 58 a0 00 00 	sub    $0xa058,%rsp
  4025a1:	49 89 fd             	mov    %rdi,%r13
  4025a4:	89 74 24 14          	mov    %esi,0x14(%rsp)
  4025a8:	49 89 d7             	mov    %rdx,%r15
  4025ab:	48 89 4c 24 08       	mov    %rcx,0x8(%rsp)
  4025b0:	4c 89 44 24 18       	mov    %r8,0x18(%rsp)
  4025b5:	4d 89 ce             	mov    %r9,%r14
  4025b8:	48 8b ac 24 90 a0 00 	mov    0xa090(%rsp),%rbp
  4025bf:	00 
  4025c0:	c7 84 24 2c 20 00 00 	movl   $0x0,0x202c(%rsp)
  4025c7:	00 00 00 00 
  4025cb:	ba 00 00 00 00       	mov    $0x0,%edx
  4025d0:	be 01 00 00 00       	mov    $0x1,%esi
  4025d5:	bf 02 00 00 00       	mov    $0x2,%edi
  4025da:	e8 41 ec ff ff       	callq  401220 <socket@plt>
  4025df:	85 c0                	test   %eax,%eax
  4025e1:	0f 88 9a 02 00 00    	js     402881 <submitr+0x2f1>
  4025e7:	89 c3                	mov    %eax,%ebx
  4025e9:	4c 89 ef             	mov    %r13,%rdi
  4025ec:	e8 1f eb ff ff       	callq  401110 <gethostbyname@plt>
  4025f1:	48 85 c0             	test   %rax,%rax
  4025f4:	0f 84 d3 02 00 00    	je     4028cd <submitr+0x33d>
  4025fa:	4c 8d a4 24 40 a0 00 	lea    0xa040(%rsp),%r12
  402601:	00 
  402602:	48 c7 84 24 42 a0 00 	movq   $0x0,0xa042(%rsp)
  402609:	00 00 00 00 00 
  40260e:	c7 84 24 4a a0 00 00 	movl   $0x0,0xa04a(%rsp)
  402615:	00 00 00 00 
  402619:	66 c7 84 24 4e a0 00 	movw   $0x0,0xa04e(%rsp)
  402620:	00 00 00 
  402623:	66 c7 84 24 40 a0 00 	movw   $0x2,0xa040(%rsp)
  40262a:	00 02 00 
  40262d:	48 8b 48 18          	mov    0x18(%rax),%rcx
  402631:	48 63 50 14          	movslq 0x14(%rax),%rdx
  402635:	48 8d bc 24 44 a0 00 	lea    0xa044(%rsp),%rdi
  40263c:	00 
  40263d:	48 8b 31             	mov    (%rcx),%rsi
  402640:	e8 4b eb ff ff       	callq  401190 <memmove@plt>
  402645:	0f b7 44 24 14       	movzwl 0x14(%rsp),%eax
  40264a:	66 c1 c0 08          	rol    $0x8,%ax
  40264e:	66 89 84 24 42 a0 00 	mov    %ax,0xa042(%rsp)
  402655:	00 
  402656:	ba 10 00 00 00       	mov    $0x10,%edx
  40265b:	4c 89 e6             	mov    %r12,%rsi
  40265e:	89 df                	mov    %ebx,%edi
  402660:	e8 9b eb ff ff       	callq  401200 <connect@plt>
  402665:	85 c0                	test   %eax,%eax
  402667:	0f 88 c8 02 00 00    	js     402935 <submitr+0x3a5>
  40266d:	48 c7 c6 ff ff ff ff 	mov    $0xffffffffffffffff,%rsi
  402674:	b8 00 00 00 00       	mov    $0x0,%eax
  402679:	48 89 f1             	mov    %rsi,%rcx
  40267c:	4c 89 f7             	mov    %r14,%rdi
  40267f:	f2 ae                	repnz scas %es:(%rdi),%al
  402681:	48 89 ca             	mov    %rcx,%rdx
  402684:	48 f7 d2             	not    %rdx
  402687:	48 89 f1             	mov    %rsi,%rcx
  40268a:	4c 89 ff             	mov    %r15,%rdi
  40268d:	f2 ae                	repnz scas %es:(%rdi),%al
  40268f:	48 f7 d1             	not    %rcx
  402692:	49 89 c8             	mov    %rcx,%r8
  402695:	48 89 f1             	mov    %rsi,%rcx
  402698:	48 8b 7c 24 08       	mov    0x8(%rsp),%rdi
  40269d:	f2 ae                	repnz scas %es:(%rdi),%al
  40269f:	48 f7 d1             	not    %rcx
  4026a2:	4d 8d 44 08 fe       	lea    -0x2(%r8,%rcx,1),%r8
  4026a7:	48 89 f1             	mov    %rsi,%rcx
  4026aa:	48 8b 7c 24 18       	mov    0x18(%rsp),%rdi
  4026af:	f2 ae                	repnz scas %es:(%rdi),%al
  4026b1:	48 89 c8             	mov    %rcx,%rax
  4026b4:	48 f7 d0             	not    %rax
  4026b7:	49 8d 4c 00 ff       	lea    -0x1(%r8,%rax,1),%rcx
  4026bc:	48 8d 44 52 fd       	lea    -0x3(%rdx,%rdx,2),%rax
  4026c1:	48 8d 84 01 80 00 00 	lea    0x80(%rcx,%rax,1),%rax
  4026c8:	00 
  4026c9:	48 3d 00 20 00 00    	cmp    $0x2000,%rax
  4026cf:	0f 87 ba 02 00 00    	ja     40298f <submitr+0x3ff>
  4026d5:	48 8d b4 24 30 40 00 	lea    0x4030(%rsp),%rsi
  4026dc:	00 
  4026dd:	b9 00 04 00 00       	mov    $0x400,%ecx
  4026e2:	b8 00 00 00 00       	mov    $0x0,%eax
  4026e7:	48 89 f7             	mov    %rsi,%rdi
  4026ea:	f3 48 ab             	rep stos %rax,%es:(%rdi)
  4026ed:	4c 89 f7             	mov    %r14,%rdi
  4026f0:	e8 59 fc ff ff       	callq  40234e <urlencode>
  4026f5:	85 c0                	test   %eax,%eax
  4026f7:	0f 88 05 03 00 00    	js     402a02 <submitr+0x472>
  4026fd:	4c 8d a4 24 30 60 00 	lea    0x6030(%rsp),%r12
  402704:	00 
  402705:	4d 89 e9             	mov    %r13,%r9
  402708:	4c 8d 84 24 30 40 00 	lea    0x4030(%rsp),%r8
  40270f:	00 
  402710:	4c 89 f9             	mov    %r15,%rcx
  402713:	48 8b 54 24 08       	mov    0x8(%rsp),%rdx
  402718:	48 8d 35 69 1f 00 00 	lea    0x1f69(%rip),%rsi        # 404688 <trans_char+0x38>
  40271f:	4c 89 e7             	mov    %r12,%rdi
  402722:	b8 00 00 00 00       	mov    $0x0,%eax
  402727:	e8 b4 ea ff ff       	callq  4011e0 <sprintf@plt>
  40272c:	48 c7 c1 ff ff ff ff 	mov    $0xffffffffffffffff,%rcx
  402733:	b8 00 00 00 00       	mov    $0x0,%eax
  402738:	4c 89 e7             	mov    %r12,%rdi
  40273b:	f2 ae                	repnz scas %es:(%rdi),%al
  40273d:	48 89 ca             	mov    %rcx,%rdx
  402740:	48 f7 d2             	not    %rdx
  402743:	48 8d 52 ff          	lea    -0x1(%rdx),%rdx
  402747:	4c 89 e6             	mov    %r12,%rsi
  40274a:	89 df                	mov    %ebx,%edi
  40274c:	e8 dc fc ff ff       	callq  40242d <rio_writen>
  402751:	48 85 c0             	test   %rax,%rax
  402754:	0f 88 33 03 00 00    	js     402a8d <submitr+0x4fd>
  40275a:	4c 8d a4 24 30 80 00 	lea    0x8030(%rsp),%r12
  402761:	00 
  402762:	89 de                	mov    %ebx,%esi
  402764:	4c 89 e7             	mov    %r12,%rdi
  402767:	e8 a5 fb ff ff       	callq  402311 <rio_readinitb>
  40276c:	48 8d b4 24 30 60 00 	lea    0x6030(%rsp),%rsi
  402773:	00 
  402774:	ba 00 20 00 00       	mov    $0x2000,%edx
  402779:	4c 89 e7             	mov    %r12,%rdi
  40277c:	e8 93 fd ff ff       	callq  402514 <rio_readlineb>
  402781:	48 85 c0             	test   %rax,%rax
  402784:	0f 8e 72 03 00 00    	jle    402afc <submitr+0x56c>
  40278a:	48 8d 8c 24 2c 20 00 	lea    0x202c(%rsp),%rcx
  402791:	00 
  402792:	48 8d 94 24 30 20 00 	lea    0x2030(%rsp),%rdx
  402799:	00 
  40279a:	48 8d bc 24 30 60 00 	lea    0x6030(%rsp),%rdi
  4027a1:	00 
  4027a2:	4c 8d 44 24 20       	lea    0x20(%rsp),%r8
  4027a7:	48 8d 35 51 1f 00 00 	lea    0x1f51(%rip),%rsi        # 4046ff <trans_char+0xaf>
  4027ae:	b8 00 00 00 00       	mov    $0x0,%eax
  4027b3:	e8 b8 e9 ff ff       	callq  401170 <__isoc99_sscanf@plt>
  4027b8:	48 8d b4 24 30 60 00 	lea    0x6030(%rsp),%rsi
  4027bf:	00 
  4027c0:	b9 03 00 00 00       	mov    $0x3,%ecx
  4027c5:	48 8d 3d 4a 1f 00 00 	lea    0x1f4a(%rip),%rdi        # 404716 <trans_char+0xc6>
  4027cc:	f3 a6                	repz cmpsb %es:(%rdi),%ds:(%rsi)
  4027ce:	0f 97 c0             	seta   %al
  4027d1:	1c 00                	sbb    $0x0,%al
  4027d3:	84 c0                	test   %al,%al
  4027d5:	0f 84 9f 03 00 00    	je     402b7a <submitr+0x5ea>
  4027db:	48 8d b4 24 30 60 00 	lea    0x6030(%rsp),%rsi
  4027e2:	00 
  4027e3:	48 8d bc 24 30 80 00 	lea    0x8030(%rsp),%rdi
  4027ea:	00 
  4027eb:	ba 00 20 00 00       	mov    $0x2000,%edx
  4027f0:	e8 1f fd ff ff       	callq  402514 <rio_readlineb>
  4027f5:	48 85 c0             	test   %rax,%rax
  4027f8:	7f be                	jg     4027b8 <submitr+0x228>
  4027fa:	48 b8 45 72 72 6f 72 	movabs $0x43203a726f727245,%rax
  402801:	3a 20 43 
  402804:	48 ba 6c 69 65 6e 74 	movabs $0x6e7520746e65696c,%rdx
  40280b:	20 75 6e 
  40280e:	48 89 45 00          	mov    %rax,0x0(%rbp)
  402812:	48 89 55 08          	mov    %rdx,0x8(%rbp)
  402816:	48 b8 61 62 6c 65 20 	movabs $0x206f7420656c6261,%rax
  40281d:	74 6f 20 
  402820:	48 ba 72 65 61 64 20 	movabs $0x6165682064616572,%rdx
  402827:	68 65 61 
  40282a:	48 89 45 10          	mov    %rax,0x10(%rbp)
  40282e:	48 89 55 18          	mov    %rdx,0x18(%rbp)
  402832:	48 b8 64 65 72 73 20 	movabs $0x6f72662073726564,%rax
  402839:	66 72 6f 
  40283c:	48 ba 6d 20 74 68 65 	movabs $0x657220656874206d,%rdx
  402843:	20 72 65 
  402846:	48 89 45 20          	mov    %rax,0x20(%rbp)
  40284a:	48 89 55 28          	mov    %rdx,0x28(%rbp)
  40284e:	48 b8 73 75 6c 74 20 	movabs $0x72657320746c7573,%rax
  402855:	73 65 72 
  402858:	48 89 45 30          	mov    %rax,0x30(%rbp)
  40285c:	c7 45 38 76 65 72 00 	movl   $0x726576,0x38(%rbp)
  402863:	89 df                	mov    %ebx,%edi
  402865:	e8 76 e8 ff ff       	callq  4010e0 <close@plt>
  40286a:	b8 ff ff ff ff       	mov    $0xffffffff,%eax
  40286f:	48 81 c4 58 a0 00 00 	add    $0xa058,%rsp
  402876:	5b                   	pop    %rbx
  402877:	5d                   	pop    %rbp
  402878:	41 5c                	pop    %r12
  40287a:	41 5d                	pop    %r13
  40287c:	41 5e                	pop    %r14
  40287e:	41 5f                	pop    %r15
  402880:	c3                   	retq   
  402881:	48 b8 45 72 72 6f 72 	movabs $0x43203a726f727245,%rax
  402888:	3a 20 43 
  40288b:	48 ba 6c 69 65 6e 74 	movabs $0x6e7520746e65696c,%rdx
  402892:	20 75 6e 
  402895:	48 89 45 00          	mov    %rax,0x0(%rbp)
  402899:	48 89 55 08          	mov    %rdx,0x8(%rbp)
  40289d:	48 b8 61 62 6c 65 20 	movabs $0x206f7420656c6261,%rax
  4028a4:	74 6f 20 
  4028a7:	48 ba 63 72 65 61 74 	movabs $0x7320657461657263,%rdx
  4028ae:	65 20 73 
  4028b1:	48 89 45 10          	mov    %rax,0x10(%rbp)
  4028b5:	48 89 55 18          	mov    %rdx,0x18(%rbp)
  4028b9:	c7 45 20 6f 63 6b 65 	movl   $0x656b636f,0x20(%rbp)
  4028c0:	66 c7 45 24 74 00    	movw   $0x74,0x24(%rbp)
  4028c6:	b8 ff ff ff ff       	mov    $0xffffffff,%eax
  4028cb:	eb a2                	jmp    40286f <submitr+0x2df>
  4028cd:	48 b8 45 72 72 6f 72 	movabs $0x44203a726f727245,%rax
  4028d4:	3a 20 44 
  4028d7:	48 ba 4e 53 20 69 73 	movabs $0x6e7520736920534e,%rdx
  4028de:	20 75 6e 
  4028e1:	48 89 45 00          	mov    %rax,0x0(%rbp)
  4028e5:	48 89 55 08          	mov    %rdx,0x8(%rbp)
  4028e9:	48 b8 61 62 6c 65 20 	movabs $0x206f7420656c6261,%rax
  4028f0:	74 6f 20 
  4028f3:	48 ba 72 65 73 6f 6c 	movabs $0x2065766c6f736572,%rdx
  4028fa:	76 65 20 
  4028fd:	48 89 45 10          	mov    %rax,0x10(%rbp)
  402901:	48 89 55 18          	mov    %rdx,0x18(%rbp)
  402905:	48 b8 73 65 72 76 65 	movabs $0x6120726576726573,%rax
  40290c:	72 20 61 
  40290f:	48 89 45 20          	mov    %rax,0x20(%rbp)
  402913:	c7 45 28 64 64 72 65 	movl   $0x65726464,0x28(%rbp)
  40291a:	66 c7 45 2c 73 73    	movw   $0x7373,0x2c(%rbp)
  402920:	c6 45 2e 00          	movb   $0x0,0x2e(%rbp)
  402924:	89 df                	mov    %ebx,%edi
  402926:	e8 b5 e7 ff ff       	callq  4010e0 <close@plt>
  40292b:	b8 ff ff ff ff       	mov    $0xffffffff,%eax
  402930:	e9 3a ff ff ff       	jmpq   40286f <submitr+0x2df>
  402935:	48 b8 45 72 72 6f 72 	movabs $0x55203a726f727245,%rax
  40293c:	3a 20 55 
  40293f:	48 ba 6e 61 62 6c 65 	movabs $0x6f7420656c62616e,%rdx
  402946:	20 74 6f 
  402949:	48 89 45 00          	mov    %rax,0x0(%rbp)
  40294d:	48 89 55 08          	mov    %rdx,0x8(%rbp)
  402951:	48 b8 20 63 6f 6e 6e 	movabs $0x7463656e6e6f6320,%rax
  402958:	65 63 74 
  40295b:	48 ba 20 74 6f 20 74 	movabs $0x20656874206f7420,%rdx
  402962:	68 65 20 
  402965:	48 89 45 10          	mov    %rax,0x10(%rbp)
  402969:	48 89 55 18          	mov    %rdx,0x18(%rbp)
  40296d:	c7 45 20 73 65 72 76 	movl   $0x76726573,0x20(%rbp)
  402974:	66 c7 45 24 65 72    	movw   $0x7265,0x24(%rbp)
  40297a:	c6 45 26 00          	movb   $0x0,0x26(%rbp)
  40297e:	89 df                	mov    %ebx,%edi
  402980:	e8 5b e7 ff ff       	callq  4010e0 <close@plt>
  402985:	b8 ff ff ff ff       	mov    $0xffffffff,%eax
  40298a:	e9 e0 fe ff ff       	jmpq   40286f <submitr+0x2df>
  40298f:	48 b8 45 72 72 6f 72 	movabs $0x52203a726f727245,%rax
  402996:	3a 20 52 
  402999:	48 ba 65 73 75 6c 74 	movabs $0x747320746c757365,%rdx
  4029a0:	20 73 74 
  4029a3:	48 89 45 00          	mov    %rax,0x0(%rbp)
  4029a7:	48 89 55 08          	mov    %rdx,0x8(%rbp)
  4029ab:	48 b8 72 69 6e 67 20 	movabs $0x6f6f7420676e6972,%rax
  4029b2:	74 6f 6f 
  4029b5:	48 ba 20 6c 61 72 67 	movabs $0x202e656772616c20,%rdx
  4029bc:	65 2e 20 
  4029bf:	48 89 45 10          	mov    %rax,0x10(%rbp)
  4029c3:	48 89 55 18          	mov    %rdx,0x18(%rbp)
  4029c7:	48 b8 49 6e 63 72 65 	movabs $0x6573616572636e49,%rax
  4029ce:	61 73 65 
  4029d1:	48 ba 20 53 55 42 4d 	movabs $0x5254494d42555320,%rdx
  4029d8:	49 54 52 
  4029db:	48 89 45 20          	mov    %rax,0x20(%rbp)
  4029df:	48 89 55 28          	mov    %rdx,0x28(%rbp)
  4029e3:	48 b8 5f 4d 41 58 42 	movabs $0x46554258414d5f,%rax
  4029ea:	55 46 00 
  4029ed:	48 89 45 30          	mov    %rax,0x30(%rbp)
  4029f1:	89 df                	mov    %ebx,%edi
  4029f3:	e8 e8 e6 ff ff       	callq  4010e0 <close@plt>
  4029f8:	b8 ff ff ff ff       	mov    $0xffffffff,%eax
  4029fd:	e9 6d fe ff ff       	jmpq   40286f <submitr+0x2df>
  402a02:	48 b8 45 72 72 6f 72 	movabs $0x52203a726f727245,%rax
  402a09:	3a 20 52 
  402a0c:	48 ba 65 73 75 6c 74 	movabs $0x747320746c757365,%rdx
  402a13:	20 73 74 
  402a16:	48 89 45 00          	mov    %rax,0x0(%rbp)
  402a1a:	48 89 55 08          	mov    %rdx,0x8(%rbp)
  402a1e:	48 b8 72 69 6e 67 20 	movabs $0x6e6f6320676e6972,%rax
  402a25:	63 6f 6e 
  402a28:	48 ba 74 61 69 6e 73 	movabs $0x6e6120736e696174,%rdx
  402a2f:	20 61 6e 
  402a32:	48 89 45 10          	mov    %rax,0x10(%rbp)
  402a36:	48 89 55 18          	mov    %rdx,0x18(%rbp)
  402a3a:	48 b8 20 69 6c 6c 65 	movabs $0x6c6167656c6c6920,%rax
  402a41:	67 61 6c 
  402a44:	48 ba 20 6f 72 20 75 	movabs $0x72706e7520726f20,%rdx
  402a4b:	6e 70 72 
  402a4e:	48 89 45 20          	mov    %rax,0x20(%rbp)
  402a52:	48 89 55 28          	mov    %rdx,0x28(%rbp)
  402a56:	48 b8 69 6e 74 61 62 	movabs $0x20656c6261746e69,%rax
  402a5d:	6c 65 20 
  402a60:	48 ba 63 68 61 72 61 	movabs $0x6574636172616863,%rdx
  402a67:	63 74 65 
  402a6a:	48 89 45 30          	mov    %rax,0x30(%rbp)
  402a6e:	48 89 55 38          	mov    %rdx,0x38(%rbp)
  402a72:	66 c7 45 40 72 2e    	movw   $0x2e72,0x40(%rbp)
  402a78:	c6 45 42 00          	movb   $0x0,0x42(%rbp)
  402a7c:	89 df                	mov    %ebx,%edi
  402a7e:	e8 5d e6 ff ff       	callq  4010e0 <close@plt>
  402a83:	b8 ff ff ff ff       	mov    $0xffffffff,%eax
  402a88:	e9 e2 fd ff ff       	jmpq   40286f <submitr+0x2df>
  402a8d:	48 b8 45 72 72 6f 72 	movabs $0x43203a726f727245,%rax
  402a94:	3a 20 43 
  402a97:	48 ba 6c 69 65 6e 74 	movabs $0x6e7520746e65696c,%rdx
  402a9e:	20 75 6e 
  402aa1:	48 89 45 00          	mov    %rax,0x0(%rbp)
  402aa5:	48 89 55 08          	mov    %rdx,0x8(%rbp)
  402aa9:	48 b8 61 62 6c 65 20 	movabs $0x206f7420656c6261,%rax
  402ab0:	74 6f 20 
  402ab3:	48 ba 77 72 69 74 65 	movabs $0x6f74206574697277,%rdx
  402aba:	20 74 6f 
  402abd:	48 89 45 10          	mov    %rax,0x10(%rbp)
  402ac1:	48 89 55 18          	mov    %rdx,0x18(%rbp)
  402ac5:	48 b8 20 74 68 65 20 	movabs $0x7365722065687420,%rax
  402acc:	72 65 73 
  402acf:	48 ba 75 6c 74 20 73 	movabs $0x7672657320746c75,%rdx
  402ad6:	65 72 76 
  402ad9:	48 89 45 20          	mov    %rax,0x20(%rbp)
  402add:	48 89 55 28          	mov    %rdx,0x28(%rbp)
  402ae1:	66 c7 45 30 65 72    	movw   $0x7265,0x30(%rbp)
  402ae7:	c6 45 32 00          	movb   $0x0,0x32(%rbp)
  402aeb:	89 df                	mov    %ebx,%edi
  402aed:	e8 ee e5 ff ff       	callq  4010e0 <close@plt>
  402af2:	b8 ff ff ff ff       	mov    $0xffffffff,%eax
  402af7:	e9 73 fd ff ff       	jmpq   40286f <submitr+0x2df>
  402afc:	48 b8 45 72 72 6f 72 	movabs $0x43203a726f727245,%rax
  402b03:	3a 20 43 
  402b06:	48 ba 6c 69 65 6e 74 	movabs $0x6e7520746e65696c,%rdx
  402b0d:	20 75 6e 
  402b10:	48 89 45 00          	mov    %rax,0x0(%rbp)
  402b14:	48 89 55 08          	mov    %rdx,0x8(%rbp)
  402b18:	48 b8 61 62 6c 65 20 	movabs $0x206f7420656c6261,%rax
  402b1f:	74 6f 20 
  402b22:	48 ba 72 65 61 64 20 	movabs $0x7269662064616572,%rdx
  402b29:	66 69 72 
  402b2c:	48 89 45 10          	mov    %rax,0x10(%rbp)
  402b30:	48 89 55 18          	mov    %rdx,0x18(%rbp)
  402b34:	48 b8 73 74 20 68 65 	movabs $0x6564616568207473,%rax
  402b3b:	61 64 65 
  402b3e:	48 ba 72 20 66 72 6f 	movabs $0x72206d6f72662072,%rdx
  402b45:	6d 20 72 
  402b48:	48 89 45 20          	mov    %rax,0x20(%rbp)
  402b4c:	48 89 55 28          	mov    %rdx,0x28(%rbp)
  402b50:	48 b8 65 73 75 6c 74 	movabs $0x657320746c757365,%rax
  402b57:	20 73 65 
  402b5a:	48 89 45 30          	mov    %rax,0x30(%rbp)
  402b5e:	c7 45 38 72 76 65 72 	movl   $0x72657672,0x38(%rbp)
  402b65:	c6 45 3c 00          	movb   $0x0,0x3c(%rbp)
  402b69:	89 df                	mov    %ebx,%edi
  402b6b:	e8 70 e5 ff ff       	callq  4010e0 <close@plt>
  402b70:	b8 ff ff ff ff       	mov    $0xffffffff,%eax
  402b75:	e9 f5 fc ff ff       	jmpq   40286f <submitr+0x2df>
  402b7a:	48 8d b4 24 30 60 00 	lea    0x6030(%rsp),%rsi
  402b81:	00 
  402b82:	48 8d bc 24 30 80 00 	lea    0x8030(%rsp),%rdi
  402b89:	00 
  402b8a:	ba 00 20 00 00       	mov    $0x2000,%edx
  402b8f:	e8 80 f9 ff ff       	callq  402514 <rio_readlineb>
  402b94:	48 85 c0             	test   %rax,%rax
  402b97:	0f 8e 97 00 00 00    	jle    402c34 <submitr+0x6a4>
  402b9d:	8b 94 24 2c 20 00 00 	mov    0x202c(%rsp),%edx
  402ba4:	81 fa c8 00 00 00    	cmp    $0xc8,%edx
  402baa:	0f 85 08 01 00 00    	jne    402cb8 <submitr+0x728>
  402bb0:	48 8d b4 24 30 60 00 	lea    0x6030(%rsp),%rsi
  402bb7:	00 
  402bb8:	48 89 ef             	mov    %rbp,%rdi
  402bbb:	e8 b0 e4 ff ff       	callq  401070 <strcpy@plt>
  402bc0:	89 df                	mov    %ebx,%edi
  402bc2:	e8 19 e5 ff ff       	callq  4010e0 <close@plt>
  402bc7:	b9 04 00 00 00       	mov    $0x4,%ecx
  402bcc:	48 8d 3d 3d 1b 00 00 	lea    0x1b3d(%rip),%rdi        # 404710 <trans_char+0xc0>
  402bd3:	48 89 ee             	mov    %rbp,%rsi
  402bd6:	f3 a6                	repz cmpsb %es:(%rdi),%ds:(%rsi)
  402bd8:	0f 97 c0             	seta   %al
  402bdb:	1c 00                	sbb    $0x0,%al
  402bdd:	0f be c0             	movsbl %al,%eax
  402be0:	85 c0                	test   %eax,%eax
  402be2:	0f 84 87 fc ff ff    	je     40286f <submitr+0x2df>
  402be8:	b9 05 00 00 00       	mov    $0x5,%ecx
  402bed:	48 8d 3d 20 1b 00 00 	lea    0x1b20(%rip),%rdi        # 404714 <trans_char+0xc4>
  402bf4:	48 89 ee             	mov    %rbp,%rsi
  402bf7:	f3 a6                	repz cmpsb %es:(%rdi),%ds:(%rsi)
  402bf9:	0f 97 c0             	seta   %al
  402bfc:	1c 00                	sbb    $0x0,%al
  402bfe:	0f be c0             	movsbl %al,%eax
  402c01:	85 c0                	test   %eax,%eax
  402c03:	0f 84 66 fc ff ff    	je     40286f <submitr+0x2df>
  402c09:	b9 03 00 00 00       	mov    $0x3,%ecx
  402c0e:	48 8d 3d 04 1b 00 00 	lea    0x1b04(%rip),%rdi        # 404719 <trans_char+0xc9>
  402c15:	48 89 ee             	mov    %rbp,%rsi
  402c18:	f3 a6                	repz cmpsb %es:(%rdi),%ds:(%rsi)
  402c1a:	0f 97 c0             	seta   %al
  402c1d:	1c 00                	sbb    $0x0,%al
  402c1f:	0f be c0             	movsbl %al,%eax
  402c22:	85 c0                	test   %eax,%eax
  402c24:	0f 84 45 fc ff ff    	je     40286f <submitr+0x2df>
  402c2a:	b8 ff ff ff ff       	mov    $0xffffffff,%eax
  402c2f:	e9 3b fc ff ff       	jmpq   40286f <submitr+0x2df>
  402c34:	48 b8 45 72 72 6f 72 	movabs $0x43203a726f727245,%rax
  402c3b:	3a 20 43 
  402c3e:	48 ba 6c 69 65 6e 74 	movabs $0x6e7520746e65696c,%rdx
  402c45:	20 75 6e 
  402c48:	48 89 45 00          	mov    %rax,0x0(%rbp)
  402c4c:	48 89 55 08          	mov    %rdx,0x8(%rbp)
  402c50:	48 b8 61 62 6c 65 20 	movabs $0x206f7420656c6261,%rax
  402c57:	74 6f 20 
  402c5a:	48 ba 72 65 61 64 20 	movabs $0x6174732064616572,%rdx
  402c61:	73 74 61 
  402c64:	48 89 45 10          	mov    %rax,0x10(%rbp)
  402c68:	48 89 55 18          	mov    %rdx,0x18(%rbp)
  402c6c:	48 b8 74 75 73 20 6d 	movabs $0x7373656d20737574,%rax
  402c73:	65 73 73 
  402c76:	48 ba 61 67 65 20 66 	movabs $0x6d6f726620656761,%rdx
  402c7d:	72 6f 6d 
  402c80:	48 89 45 20          	mov    %rax,0x20(%rbp)
  402c84:	48 89 55 28          	mov    %rdx,0x28(%rbp)
  402c88:	48 b8 20 72 65 73 75 	movabs $0x20746c7573657220,%rax
  402c8f:	6c 74 20 
  402c92:	48 89 45 30          	mov    %rax,0x30(%rbp)
  402c96:	c7 45 38 73 65 72 76 	movl   $0x76726573,0x38(%rbp)
  402c9d:	66 c7 45 3c 65 72    	movw   $0x7265,0x3c(%rbp)
  402ca3:	c6 45 3e 00          	movb   $0x0,0x3e(%rbp)
  402ca7:	89 df                	mov    %ebx,%edi
  402ca9:	e8 32 e4 ff ff       	callq  4010e0 <close@plt>
  402cae:	b8 ff ff ff ff       	mov    $0xffffffff,%eax
  402cb3:	e9 b7 fb ff ff       	jmpq   40286f <submitr+0x2df>
  402cb8:	48 8d 4c 24 20       	lea    0x20(%rsp),%rcx
  402cbd:	48 8d 35 04 1a 00 00 	lea    0x1a04(%rip),%rsi        # 4046c8 <trans_char+0x78>
  402cc4:	48 89 ef             	mov    %rbp,%rdi
  402cc7:	b8 00 00 00 00       	mov    $0x0,%eax
  402ccc:	e8 0f e5 ff ff       	callq  4011e0 <sprintf@plt>
  402cd1:	89 df                	mov    %ebx,%edi
  402cd3:	e8 08 e4 ff ff       	callq  4010e0 <close@plt>
  402cd8:	b8 ff ff ff ff       	mov    $0xffffffff,%eax
  402cdd:	e9 8d fb ff ff       	jmpq   40286f <submitr+0x2df>

0000000000402ce2 <init_timeout>:
  402ce2:	85 ff                	test   %edi,%edi
  402ce4:	74 26                	je     402d0c <init_timeout+0x2a>
  402ce6:	53                   	push   %rbx
  402ce7:	89 fb                	mov    %edi,%ebx
  402ce9:	78 1a                	js     402d05 <init_timeout+0x23>
  402ceb:	48 8d 35 31 f6 ff ff 	lea    -0x9cf(%rip),%rsi        # 402323 <sigalrm_handler>
  402cf2:	bf 0e 00 00 00       	mov    $0xe,%edi
  402cf7:	e8 04 e4 ff ff       	callq  401100 <signal@plt>
  402cfc:	89 df                	mov    %ebx,%edi
  402cfe:	e8 cd e3 ff ff       	callq  4010d0 <alarm@plt>
  402d03:	5b                   	pop    %rbx
  402d04:	c3                   	retq   
  402d05:	bb 00 00 00 00       	mov    $0x0,%ebx
  402d0a:	eb df                	jmp    402ceb <init_timeout+0x9>
  402d0c:	c3                   	retq   

0000000000402d0d <init_driver>:
  402d0d:	41 54                	push   %r12
  402d0f:	55                   	push   %rbp
  402d10:	53                   	push   %rbx
  402d11:	48 83 ec 10          	sub    $0x10,%rsp
  402d15:	49 89 fc             	mov    %rdi,%r12
  402d18:	be 01 00 00 00       	mov    $0x1,%esi
  402d1d:	bf 0d 00 00 00       	mov    $0xd,%edi
  402d22:	e8 d9 e3 ff ff       	callq  401100 <signal@plt>
  402d27:	be 01 00 00 00       	mov    $0x1,%esi
  402d2c:	bf 1d 00 00 00       	mov    $0x1d,%edi
  402d31:	e8 ca e3 ff ff       	callq  401100 <signal@plt>
  402d36:	be 01 00 00 00       	mov    $0x1,%esi
  402d3b:	bf 1d 00 00 00       	mov    $0x1d,%edi
  402d40:	e8 bb e3 ff ff       	callq  401100 <signal@plt>
  402d45:	ba 00 00 00 00       	mov    $0x0,%edx
  402d4a:	be 01 00 00 00       	mov    $0x1,%esi
  402d4f:	bf 02 00 00 00       	mov    $0x2,%edi
  402d54:	e8 c7 e4 ff ff       	callq  401220 <socket@plt>
  402d59:	85 c0                	test   %eax,%eax
  402d5b:	0f 88 8a 00 00 00    	js     402deb <init_driver+0xde>
  402d61:	89 c3                	mov    %eax,%ebx
  402d63:	48 8d 3d b2 19 00 00 	lea    0x19b2(%rip),%rdi        # 40471c <trans_char+0xcc>
  402d6a:	e8 a1 e3 ff ff       	callq  401110 <gethostbyname@plt>
  402d6f:	48 85 c0             	test   %rax,%rax
  402d72:	0f 84 c6 00 00 00    	je     402e3e <init_driver+0x131>
  402d78:	48 89 e5             	mov    %rsp,%rbp
  402d7b:	48 c7 44 24 02 00 00 	movq   $0x0,0x2(%rsp)
  402d82:	00 00 
  402d84:	c7 45 0a 00 00 00 00 	movl   $0x0,0xa(%rbp)
  402d8b:	66 c7 45 0e 00 00    	movw   $0x0,0xe(%rbp)
  402d91:	66 c7 04 24 02 00    	movw   $0x2,(%rsp)
  402d97:	48 8b 48 18          	mov    0x18(%rax),%rcx
  402d9b:	48 63 50 14          	movslq 0x14(%rax),%rdx
  402d9f:	48 8d 7d 04          	lea    0x4(%rbp),%rdi
  402da3:	48 8b 31             	mov    (%rcx),%rsi
  402da6:	e8 e5 e3 ff ff       	callq  401190 <memmove@plt>
  402dab:	66 c7 44 24 02 3c 9a 	movw   $0x9a3c,0x2(%rsp)
  402db2:	ba 10 00 00 00       	mov    $0x10,%edx
  402db7:	48 89 ee             	mov    %rbp,%rsi
  402dba:	89 df                	mov    %ebx,%edi
  402dbc:	e8 3f e4 ff ff       	callq  401200 <connect@plt>
  402dc1:	85 c0                	test   %eax,%eax
  402dc3:	0f 88 e7 00 00 00    	js     402eb0 <init_driver+0x1a3>
  402dc9:	89 df                	mov    %ebx,%edi
  402dcb:	e8 10 e3 ff ff       	callq  4010e0 <close@plt>
  402dd0:	66 41 c7 04 24 4f 4b 	movw   $0x4b4f,(%r12)
  402dd7:	41 c6 44 24 02 00    	movb   $0x0,0x2(%r12)
  402ddd:	b8 00 00 00 00       	mov    $0x0,%eax
  402de2:	48 83 c4 10          	add    $0x10,%rsp
  402de6:	5b                   	pop    %rbx
  402de7:	5d                   	pop    %rbp
  402de8:	41 5c                	pop    %r12
  402dea:	c3                   	retq   
  402deb:	48 b8 45 72 72 6f 72 	movabs $0x43203a726f727245,%rax
  402df2:	3a 20 43 
  402df5:	48 ba 6c 69 65 6e 74 	movabs $0x6e7520746e65696c,%rdx
  402dfc:	20 75 6e 
  402dff:	49 89 04 24          	mov    %rax,(%r12)
  402e03:	49 89 54 24 08       	mov    %rdx,0x8(%r12)
  402e08:	48 b8 61 62 6c 65 20 	movabs $0x206f7420656c6261,%rax
  402e0f:	74 6f 20 
  402e12:	48 ba 63 72 65 61 74 	movabs $0x7320657461657263,%rdx
  402e19:	65 20 73 
  402e1c:	49 89 44 24 10       	mov    %rax,0x10(%r12)
  402e21:	49 89 54 24 18       	mov    %rdx,0x18(%r12)
  402e26:	41 c7 44 24 20 6f 63 	movl   $0x656b636f,0x20(%r12)
  402e2d:	6b 65 
  402e2f:	66 41 c7 44 24 24 74 	movw   $0x74,0x24(%r12)
  402e36:	00 
  402e37:	b8 ff ff ff ff       	mov    $0xffffffff,%eax
  402e3c:	eb a4                	jmp    402de2 <init_driver+0xd5>
  402e3e:	48 b8 45 72 72 6f 72 	movabs $0x44203a726f727245,%rax
  402e45:	3a 20 44 
  402e48:	48 ba 4e 53 20 69 73 	movabs $0x6e7520736920534e,%rdx
  402e4f:	20 75 6e 
  402e52:	49 89 04 24          	mov    %rax,(%r12)
  402e56:	49 89 54 24 08       	mov    %rdx,0x8(%r12)
  402e5b:	48 b8 61 62 6c 65 20 	movabs $0x206f7420656c6261,%rax
  402e62:	74 6f 20 
  402e65:	48 ba 72 65 73 6f 6c 	movabs $0x2065766c6f736572,%rdx
  402e6c:	76 65 20 
  402e6f:	49 89 44 24 10       	mov    %rax,0x10(%r12)
  402e74:	49 89 54 24 18       	mov    %rdx,0x18(%r12)
  402e79:	48 b8 73 65 72 76 65 	movabs $0x6120726576726573,%rax
  402e80:	72 20 61 
  402e83:	49 89 44 24 20       	mov    %rax,0x20(%r12)
  402e88:	41 c7 44 24 28 64 64 	movl   $0x65726464,0x28(%r12)
  402e8f:	72 65 
  402e91:	66 41 c7 44 24 2c 73 	movw   $0x7373,0x2c(%r12)
  402e98:	73 
  402e99:	41 c6 44 24 2e 00    	movb   $0x0,0x2e(%r12)
  402e9f:	89 df                	mov    %ebx,%edi
  402ea1:	e8 3a e2 ff ff       	callq  4010e0 <close@plt>
  402ea6:	b8 ff ff ff ff       	mov    $0xffffffff,%eax
  402eab:	e9 32 ff ff ff       	jmpq   402de2 <init_driver+0xd5>
  402eb0:	48 b8 45 72 72 6f 72 	movabs $0x55203a726f727245,%rax
  402eb7:	3a 20 55 
  402eba:	48 ba 6e 61 62 6c 65 	movabs $0x6f7420656c62616e,%rdx
  402ec1:	20 74 6f 
  402ec4:	49 89 04 24          	mov    %rax,(%r12)
  402ec8:	49 89 54 24 08       	mov    %rdx,0x8(%r12)
  402ecd:	48 b8 20 63 6f 6e 6e 	movabs $0x7463656e6e6f6320,%rax
  402ed4:	65 63 74 
  402ed7:	48 ba 20 74 6f 20 73 	movabs $0x76726573206f7420,%rdx
  402ede:	65 72 76 
  402ee1:	49 89 44 24 10       	mov    %rax,0x10(%r12)
  402ee6:	49 89 54 24 18       	mov    %rdx,0x18(%r12)
  402eeb:	66 41 c7 44 24 20 65 	movw   $0x7265,0x20(%r12)
  402ef2:	72 
  402ef3:	41 c6 44 24 22 00    	movb   $0x0,0x22(%r12)
  402ef9:	89 df                	mov    %ebx,%edi
  402efb:	e8 e0 e1 ff ff       	callq  4010e0 <close@plt>
  402f00:	b8 ff ff ff ff       	mov    $0xffffffff,%eax
  402f05:	e9 d8 fe ff ff       	jmpq   402de2 <init_driver+0xd5>

0000000000402f0a <driver_post>:
  402f0a:	53                   	push   %rbx
  402f0b:	4c 89 cb             	mov    %r9,%rbx
  402f0e:	45 85 c0             	test   %r8d,%r8d
  402f11:	75 18                	jne    402f2b <driver_post+0x21>
  402f13:	48 85 ff             	test   %rdi,%rdi
  402f16:	74 05                	je     402f1d <driver_post+0x13>
  402f18:	80 3f 00             	cmpb   $0x0,(%rdi)
  402f1b:	75 32                	jne    402f4f <driver_post+0x45>
  402f1d:	66 c7 03 4f 4b       	movw   $0x4b4f,(%rbx)
  402f22:	c6 43 02 00          	movb   $0x0,0x2(%rbx)
  402f26:	44 89 c0             	mov    %r8d,%eax
  402f29:	5b                   	pop    %rbx
  402f2a:	c3                   	retq   
  402f2b:	48 89 ce             	mov    %rcx,%rsi
  402f2e:	48 8d 3d ff 17 00 00 	lea    0x17ff(%rip),%rdi        # 404734 <trans_char+0xe4>
  402f35:	b8 00 00 00 00       	mov    $0x0,%eax
  402f3a:	e8 71 e1 ff ff       	callq  4010b0 <printf@plt>
  402f3f:	66 c7 03 4f 4b       	movw   $0x4b4f,(%rbx)
  402f44:	c6 43 02 00          	movb   $0x0,0x2(%rbx)
  402f48:	b8 00 00 00 00       	mov    $0x0,%eax
  402f4d:	eb da                	jmp    402f29 <driver_post+0x1f>
  402f4f:	48 83 ec 08          	sub    $0x8,%rsp
  402f53:	41 51                	push   %r9
  402f55:	49 89 c9             	mov    %rcx,%r9
  402f58:	49 89 d0             	mov    %rdx,%r8
  402f5b:	48 89 f9             	mov    %rdi,%rcx
  402f5e:	48 89 f2             	mov    %rsi,%rdx
  402f61:	be 9a 3c 00 00       	mov    $0x3c9a,%esi
  402f66:	48 8d 3d af 17 00 00 	lea    0x17af(%rip),%rdi        # 40471c <trans_char+0xcc>
  402f6d:	e8 1e f6 ff ff       	callq  402590 <submitr>
  402f72:	48 83 c4 10          	add    $0x10,%rsp
  402f76:	eb b1                	jmp    402f29 <driver_post+0x1f>

0000000000402f78 <check>:
  402f78:	89 f8                	mov    %edi,%eax
  402f7a:	c1 e8 1c             	shr    $0x1c,%eax
  402f7d:	74 1d                	je     402f9c <check+0x24>
  402f7f:	b9 00 00 00 00       	mov    $0x0,%ecx
  402f84:	83 f9 1f             	cmp    $0x1f,%ecx
  402f87:	7f 0d                	jg     402f96 <check+0x1e>
  402f89:	89 f8                	mov    %edi,%eax
  402f8b:	d3 e8                	shr    %cl,%eax
  402f8d:	3c 0a                	cmp    $0xa,%al
  402f8f:	74 11                	je     402fa2 <check+0x2a>
  402f91:	83 c1 08             	add    $0x8,%ecx
  402f94:	eb ee                	jmp    402f84 <check+0xc>
  402f96:	b8 01 00 00 00       	mov    $0x1,%eax
  402f9b:	c3                   	retq   
  402f9c:	b8 00 00 00 00       	mov    $0x0,%eax
  402fa1:	c3                   	retq   
  402fa2:	b8 00 00 00 00       	mov    $0x0,%eax
  402fa7:	c3                   	retq   

0000000000402fa8 <gencookie>:
  402fa8:	53                   	push   %rbx
  402fa9:	83 c7 01             	add    $0x1,%edi
  402fac:	e8 9f e0 ff ff       	callq  401050 <srandom@plt>
  402fb1:	e8 aa e1 ff ff       	callq  401160 <random@plt>
  402fb6:	89 c3                	mov    %eax,%ebx
  402fb8:	89 c7                	mov    %eax,%edi
  402fba:	e8 b9 ff ff ff       	callq  402f78 <check>
  402fbf:	85 c0                	test   %eax,%eax
  402fc1:	74 ee                	je     402fb1 <gencookie+0x9>
  402fc3:	89 d8                	mov    %ebx,%eax
  402fc5:	5b                   	pop    %rbx
  402fc6:	c3                   	retq   
  402fc7:	66 0f 1f 84 00 00 00 	nopw   0x0(%rax,%rax,1)
  402fce:	00 00 

0000000000402fd0 <__libc_csu_init>:
  402fd0:	41 57                	push   %r15
  402fd2:	49 89 d7             	mov    %rdx,%r15
  402fd5:	41 56                	push   %r14
  402fd7:	49 89 f6             	mov    %rsi,%r14
  402fda:	41 55                	push   %r13
  402fdc:	41 89 fd             	mov    %edi,%r13d
  402fdf:	41 54                	push   %r12
  402fe1:	4c 8d 25 28 3e 00 00 	lea    0x3e28(%rip),%r12        # 406e10 <__frame_dummy_init_array_entry>
  402fe8:	55                   	push   %rbp
  402fe9:	48 8d 2d 28 3e 00 00 	lea    0x3e28(%rip),%rbp        # 406e18 <__do_global_dtors_aux_fini_array_entry>
  402ff0:	53                   	push   %rbx
  402ff1:	4c 29 e5             	sub    %r12,%rbp
  402ff4:	48 83 ec 08          	sub    $0x8,%rsp
  402ff8:	e8 03 e0 ff ff       	callq  401000 <_init>
  402ffd:	48 c1 fd 03          	sar    $0x3,%rbp
  403001:	74 1b                	je     40301e <__libc_csu_init+0x4e>
  403003:	31 db                	xor    %ebx,%ebx
  403005:	0f 1f 00             	nopl   (%rax)
  403008:	4c 89 fa             	mov    %r15,%rdx
  40300b:	4c 89 f6             	mov    %r14,%rsi
  40300e:	44 89 ef             	mov    %r13d,%edi
  403011:	41 ff 14 dc          	callq  *(%r12,%rbx,8)
  403015:	48 83 c3 01          	add    $0x1,%rbx
  403019:	48 39 dd             	cmp    %rbx,%rbp
  40301c:	75 ea                	jne    403008 <__libc_csu_init+0x38>
  40301e:	48 83 c4 08          	add    $0x8,%rsp
  403022:	5b                   	pop    %rbx
  403023:	5d                   	pop    %rbp
  403024:	41 5c                	pop    %r12
  403026:	41 5d                	pop    %r13
  403028:	41 5e                	pop    %r14
  40302a:	41 5f                	pop    %r15
  40302c:	c3                   	retq   
  40302d:	0f 1f 00             	nopl   (%rax)

0000000000403030 <__libc_csu_fini>:
  403030:	c3                   	retq   

Disassembly of section .fini:

0000000000403034 <_fini>:
  403034:	48 83 ec 08          	sub    $0x8,%rsp
  403038:	48 83 c4 08          	add    $0x8,%rsp
  40303c:	c3                   	retq   
