
ctarget:     file format elf64-x86-64


Disassembly of section .init:

0000000000401000 <_init>:
  401000:	48 83 ec 08          	sub    $0x8,%rsp
  401004:	48 8b 05 ed 4f 00 00 	mov    0x4fed(%rip),%rax        # 405ff8 <__gmon_start__>
  40100b:	48 85 c0             	test   %rax,%rax
  40100e:	74 02                	je     401012 <_init+0x12>
  401010:	ff d0                	callq  *%rax
  401012:	48 83 c4 08          	add    $0x8,%rsp
  401016:	c3                   	retq   

Disassembly of section .plt:

0000000000401020 <.plt>:
  401020:	ff 35 e2 4f 00 00    	pushq  0x4fe2(%rip)        # 406008 <_GLOBAL_OFFSET_TABLE_+0x8>
  401026:	ff 25 e4 4f 00 00    	jmpq   *0x4fe4(%rip)        # 406010 <_GLOBAL_OFFSET_TABLE_+0x10>
  40102c:	0f 1f 40 00          	nopl   0x0(%rax)

0000000000401030 <strcasecmp@plt>:
  401030:	ff 25 e2 4f 00 00    	jmpq   *0x4fe2(%rip)        # 406018 <strcasecmp@GLIBC_2.2.5>
  401036:	68 00 00 00 00       	pushq  $0x0
  40103b:	e9 e0 ff ff ff       	jmpq   401020 <.plt>

0000000000401040 <__errno_location@plt>:
  401040:	ff 25 da 4f 00 00    	jmpq   *0x4fda(%rip)        # 406020 <__errno_location@GLIBC_2.2.5>
  401046:	68 01 00 00 00       	pushq  $0x1
  40104b:	e9 d0 ff ff ff       	jmpq   401020 <.plt>

0000000000401050 <srandom@plt>:
  401050:	ff 25 d2 4f 00 00    	jmpq   *0x4fd2(%rip)        # 406028 <srandom@GLIBC_2.2.5>
  401056:	68 02 00 00 00       	pushq  $0x2
  40105b:	e9 c0 ff ff ff       	jmpq   401020 <.plt>

0000000000401060 <strncmp@plt>:
  401060:	ff 25 ca 4f 00 00    	jmpq   *0x4fca(%rip)        # 406030 <strncmp@GLIBC_2.2.5>
  401066:	68 03 00 00 00       	pushq  $0x3
  40106b:	e9 b0 ff ff ff       	jmpq   401020 <.plt>

0000000000401070 <strcpy@plt>:
  401070:	ff 25 c2 4f 00 00    	jmpq   *0x4fc2(%rip)        # 406038 <strcpy@GLIBC_2.2.5>
  401076:	68 04 00 00 00       	pushq  $0x4
  40107b:	e9 a0 ff ff ff       	jmpq   401020 <.plt>

0000000000401080 <puts@plt>:
  401080:	ff 25 ba 4f 00 00    	jmpq   *0x4fba(%rip)        # 406040 <puts@GLIBC_2.2.5>
  401086:	68 05 00 00 00       	pushq  $0x5
  40108b:	e9 90 ff ff ff       	jmpq   401020 <.plt>

0000000000401090 <write@plt>:
  401090:	ff 25 b2 4f 00 00    	jmpq   *0x4fb2(%rip)        # 406048 <write@GLIBC_2.2.5>
  401096:	68 06 00 00 00       	pushq  $0x6
  40109b:	e9 80 ff ff ff       	jmpq   401020 <.plt>

00000000004010a0 <mmap@plt>:
  4010a0:	ff 25 aa 4f 00 00    	jmpq   *0x4faa(%rip)        # 406050 <mmap@GLIBC_2.2.5>
  4010a6:	68 07 00 00 00       	pushq  $0x7
  4010ab:	e9 70 ff ff ff       	jmpq   401020 <.plt>

00000000004010b0 <printf@plt>:
  4010b0:	ff 25 a2 4f 00 00    	jmpq   *0x4fa2(%rip)        # 406058 <printf@GLIBC_2.2.5>
  4010b6:	68 08 00 00 00       	pushq  $0x8
  4010bb:	e9 60 ff ff ff       	jmpq   401020 <.plt>

00000000004010c0 <memset@plt>:
  4010c0:	ff 25 9a 4f 00 00    	jmpq   *0x4f9a(%rip)        # 406060 <memset@GLIBC_2.2.5>
  4010c6:	68 09 00 00 00       	pushq  $0x9
  4010cb:	e9 50 ff ff ff       	jmpq   401020 <.plt>

00000000004010d0 <alarm@plt>:
  4010d0:	ff 25 92 4f 00 00    	jmpq   *0x4f92(%rip)        # 406068 <alarm@GLIBC_2.2.5>
  4010d6:	68 0a 00 00 00       	pushq  $0xa
  4010db:	e9 40 ff ff ff       	jmpq   401020 <.plt>

00000000004010e0 <close@plt>:
  4010e0:	ff 25 8a 4f 00 00    	jmpq   *0x4f8a(%rip)        # 406070 <close@GLIBC_2.2.5>
  4010e6:	68 0b 00 00 00       	pushq  $0xb
  4010eb:	e9 30 ff ff ff       	jmpq   401020 <.plt>

00000000004010f0 <read@plt>:
  4010f0:	ff 25 82 4f 00 00    	jmpq   *0x4f82(%rip)        # 406078 <read@GLIBC_2.2.5>
  4010f6:	68 0c 00 00 00       	pushq  $0xc
  4010fb:	e9 20 ff ff ff       	jmpq   401020 <.plt>

0000000000401100 <signal@plt>:
  401100:	ff 25 7a 4f 00 00    	jmpq   *0x4f7a(%rip)        # 406080 <signal@GLIBC_2.2.5>
  401106:	68 0d 00 00 00       	pushq  $0xd
  40110b:	e9 10 ff ff ff       	jmpq   401020 <.plt>

0000000000401110 <gethostbyname@plt>:
  401110:	ff 25 72 4f 00 00    	jmpq   *0x4f72(%rip)        # 406088 <gethostbyname@GLIBC_2.2.5>
  401116:	68 0e 00 00 00       	pushq  $0xe
  40111b:	e9 00 ff ff ff       	jmpq   401020 <.plt>

0000000000401120 <fprintf@plt>:
  401120:	ff 25 6a 4f 00 00    	jmpq   *0x4f6a(%rip)        # 406090 <fprintf@GLIBC_2.2.5>
  401126:	68 0f 00 00 00       	pushq  $0xf
  40112b:	e9 f0 fe ff ff       	jmpq   401020 <.plt>

0000000000401130 <strtol@plt>:
  401130:	ff 25 62 4f 00 00    	jmpq   *0x4f62(%rip)        # 406098 <strtol@GLIBC_2.2.5>
  401136:	68 10 00 00 00       	pushq  $0x10
  40113b:	e9 e0 fe ff ff       	jmpq   401020 <.plt>

0000000000401140 <memcpy@plt>:
  401140:	ff 25 5a 4f 00 00    	jmpq   *0x4f5a(%rip)        # 4060a0 <memcpy@GLIBC_2.14>
  401146:	68 11 00 00 00       	pushq  $0x11
  40114b:	e9 d0 fe ff ff       	jmpq   401020 <.plt>

0000000000401150 <time@plt>:
  401150:	ff 25 52 4f 00 00    	jmpq   *0x4f52(%rip)        # 4060a8 <time@GLIBC_2.2.5>
  401156:	68 12 00 00 00       	pushq  $0x12
  40115b:	e9 c0 fe ff ff       	jmpq   401020 <.plt>

0000000000401160 <random@plt>:
  401160:	ff 25 4a 4f 00 00    	jmpq   *0x4f4a(%rip)        # 4060b0 <random@GLIBC_2.2.5>
  401166:	68 13 00 00 00       	pushq  $0x13
  40116b:	e9 b0 fe ff ff       	jmpq   401020 <.plt>

0000000000401170 <__isoc99_sscanf@plt>:
  401170:	ff 25 42 4f 00 00    	jmpq   *0x4f42(%rip)        # 4060b8 <__isoc99_sscanf@GLIBC_2.7>
  401176:	68 14 00 00 00       	pushq  $0x14
  40117b:	e9 a0 fe ff ff       	jmpq   401020 <.plt>

0000000000401180 <munmap@plt>:
  401180:	ff 25 3a 4f 00 00    	jmpq   *0x4f3a(%rip)        # 4060c0 <munmap@GLIBC_2.2.5>
  401186:	68 15 00 00 00       	pushq  $0x15
  40118b:	e9 90 fe ff ff       	jmpq   401020 <.plt>

0000000000401190 <memmove@plt>:
  401190:	ff 25 32 4f 00 00    	jmpq   *0x4f32(%rip)        # 4060c8 <memmove@GLIBC_2.2.5>
  401196:	68 16 00 00 00       	pushq  $0x16
  40119b:	e9 80 fe ff ff       	jmpq   401020 <.plt>

00000000004011a0 <fopen@plt>:
  4011a0:	ff 25 2a 4f 00 00    	jmpq   *0x4f2a(%rip)        # 4060d0 <fopen@GLIBC_2.2.5>
  4011a6:	68 17 00 00 00       	pushq  $0x17
  4011ab:	e9 70 fe ff ff       	jmpq   401020 <.plt>

00000000004011b0 <getopt@plt>:
  4011b0:	ff 25 22 4f 00 00    	jmpq   *0x4f22(%rip)        # 4060d8 <getopt@GLIBC_2.2.5>
  4011b6:	68 18 00 00 00       	pushq  $0x18
  4011bb:	e9 60 fe ff ff       	jmpq   401020 <.plt>

00000000004011c0 <strtoul@plt>:
  4011c0:	ff 25 1a 4f 00 00    	jmpq   *0x4f1a(%rip)        # 4060e0 <strtoul@GLIBC_2.2.5>
  4011c6:	68 19 00 00 00       	pushq  $0x19
  4011cb:	e9 50 fe ff ff       	jmpq   401020 <.plt>

00000000004011d0 <gethostname@plt>:
  4011d0:	ff 25 12 4f 00 00    	jmpq   *0x4f12(%rip)        # 4060e8 <gethostname@GLIBC_2.2.5>
  4011d6:	68 1a 00 00 00       	pushq  $0x1a
  4011db:	e9 40 fe ff ff       	jmpq   401020 <.plt>

00000000004011e0 <sprintf@plt>:
  4011e0:	ff 25 0a 4f 00 00    	jmpq   *0x4f0a(%rip)        # 4060f0 <sprintf@GLIBC_2.2.5>
  4011e6:	68 1b 00 00 00       	pushq  $0x1b
  4011eb:	e9 30 fe ff ff       	jmpq   401020 <.plt>

00000000004011f0 <exit@plt>:
  4011f0:	ff 25 02 4f 00 00    	jmpq   *0x4f02(%rip)        # 4060f8 <exit@GLIBC_2.2.5>
  4011f6:	68 1c 00 00 00       	pushq  $0x1c
  4011fb:	e9 20 fe ff ff       	jmpq   401020 <.plt>

0000000000401200 <connect@plt>:
  401200:	ff 25 fa 4e 00 00    	jmpq   *0x4efa(%rip)        # 406100 <connect@GLIBC_2.2.5>
  401206:	68 1d 00 00 00       	pushq  $0x1d
  40120b:	e9 10 fe ff ff       	jmpq   401020 <.plt>

0000000000401210 <getc@plt>:
  401210:	ff 25 f2 4e 00 00    	jmpq   *0x4ef2(%rip)        # 406108 <getc@GLIBC_2.2.5>
  401216:	68 1e 00 00 00       	pushq  $0x1e
  40121b:	e9 00 fe ff ff       	jmpq   401020 <.plt>

0000000000401220 <socket@plt>:
  401220:	ff 25 ea 4e 00 00    	jmpq   *0x4eea(%rip)        # 406110 <socket@GLIBC_2.2.5>
  401226:	68 1f 00 00 00       	pushq  $0x1f
  40122b:	e9 f0 fd ff ff       	jmpq   401020 <.plt>

Disassembly of section .text:

0000000000401230 <_start>:
  401230:	31 ed                	xor    %ebp,%ebp
  401232:	49 89 d1             	mov    %rdx,%r9
  401235:	5e                   	pop    %rsi
  401236:	48 89 e2             	mov    %rsp,%rdx
  401239:	48 83 e4 f0          	and    $0xfffffffffffffff0,%rsp
  40123d:	50                   	push   %rax
  40123e:	54                   	push   %rsp
  40123f:	49 c7 c0 10 2f 40 00 	mov    $0x402f10,%r8
  401246:	48 c7 c1 b0 2e 40 00 	mov    $0x402eb0,%rcx
  40124d:	48 c7 c7 f6 14 40 00 	mov    $0x4014f6,%rdi
  401254:	ff 15 96 4d 00 00    	callq  *0x4d96(%rip)        # 405ff0 <__libc_start_main@GLIBC_2.2.5>
  40125a:	f4                   	hlt    
  40125b:	0f 1f 44 00 00       	nopl   0x0(%rax,%rax,1)

0000000000401260 <_dl_relocate_static_pie>:
  401260:	c3                   	retq   
  401261:	66 2e 0f 1f 84 00 00 	nopw   %cs:0x0(%rax,%rax,1)
  401268:	00 00 00 
  40126b:	0f 1f 44 00 00       	nopl   0x0(%rax,%rax,1)

0000000000401270 <deregister_tm_clones>:
  401270:	b8 88 64 40 00       	mov    $0x406488,%eax
  401275:	48 3d 88 64 40 00    	cmp    $0x406488,%rax
  40127b:	74 13                	je     401290 <deregister_tm_clones+0x20>
  40127d:	b8 00 00 00 00       	mov    $0x0,%eax
  401282:	48 85 c0             	test   %rax,%rax
  401285:	74 09                	je     401290 <deregister_tm_clones+0x20>
  401287:	bf 88 64 40 00       	mov    $0x406488,%edi
  40128c:	ff e0                	jmpq   *%rax
  40128e:	66 90                	xchg   %ax,%ax
  401290:	c3                   	retq   
  401291:	66 66 2e 0f 1f 84 00 	data16 nopw %cs:0x0(%rax,%rax,1)
  401298:	00 00 00 00 
  40129c:	0f 1f 40 00          	nopl   0x0(%rax)

00000000004012a0 <register_tm_clones>:
  4012a0:	be 88 64 40 00       	mov    $0x406488,%esi
  4012a5:	48 81 ee 88 64 40 00 	sub    $0x406488,%rsi
  4012ac:	48 c1 fe 03          	sar    $0x3,%rsi
  4012b0:	48 89 f0             	mov    %rsi,%rax
  4012b3:	48 c1 e8 3f          	shr    $0x3f,%rax
  4012b7:	48 01 c6             	add    %rax,%rsi
  4012ba:	48 d1 fe             	sar    %rsi
  4012bd:	74 11                	je     4012d0 <register_tm_clones+0x30>
  4012bf:	b8 00 00 00 00       	mov    $0x0,%eax
  4012c4:	48 85 c0             	test   %rax,%rax
  4012c7:	74 07                	je     4012d0 <register_tm_clones+0x30>
  4012c9:	bf 88 64 40 00       	mov    $0x406488,%edi
  4012ce:	ff e0                	jmpq   *%rax
  4012d0:	c3                   	retq   
  4012d1:	66 66 2e 0f 1f 84 00 	data16 nopw %cs:0x0(%rax,%rax,1)
  4012d8:	00 00 00 00 
  4012dc:	0f 1f 40 00          	nopl   0x0(%rax)

00000000004012e0 <__do_global_dtors_aux>:
  4012e0:	80 3d e1 51 00 00 00 	cmpb   $0x0,0x51e1(%rip)        # 4064c8 <completed.7325>
  4012e7:	75 17                	jne    401300 <__do_global_dtors_aux+0x20>
  4012e9:	55                   	push   %rbp
  4012ea:	48 89 e5             	mov    %rsp,%rbp
  4012ed:	e8 7e ff ff ff       	callq  401270 <deregister_tm_clones>
  4012f2:	c6 05 cf 51 00 00 01 	movb   $0x1,0x51cf(%rip)        # 4064c8 <completed.7325>
  4012f9:	5d                   	pop    %rbp
  4012fa:	c3                   	retq   
  4012fb:	0f 1f 44 00 00       	nopl   0x0(%rax,%rax,1)
  401300:	c3                   	retq   
  401301:	66 66 2e 0f 1f 84 00 	data16 nopw %cs:0x0(%rax,%rax,1)
  401308:	00 00 00 00 
  40130c:	0f 1f 40 00          	nopl   0x0(%rax)

0000000000401310 <frame_dummy>:
  401310:	eb 8e                	jmp    4012a0 <register_tm_clones>

0000000000401312 <usage>:
  401312:	48 83 ec 08          	sub    $0x8,%rsp
  401316:	48 89 fe             	mov    %rdi,%rsi
  401319:	83 3d ec 51 00 00 00 	cmpl   $0x0,0x51ec(%rip)        # 40650c <is_checker>
  401320:	74 4b                	je     40136d <usage+0x5b>
  401322:	48 8d 3d df 1c 00 00 	lea    0x1cdf(%rip),%rdi        # 403008 <_IO_stdin_used+0x8>
  401329:	b8 00 00 00 00       	mov    $0x0,%eax
  40132e:	e8 7d fd ff ff       	callq  4010b0 <printf@plt>
  401333:	48 8d 3d 06 1d 00 00 	lea    0x1d06(%rip),%rdi        # 403040 <_IO_stdin_used+0x40>
  40133a:	e8 41 fd ff ff       	callq  401080 <puts@plt>
  40133f:	48 8d 3d 72 1e 00 00 	lea    0x1e72(%rip),%rdi        # 4031b8 <_IO_stdin_used+0x1b8>
  401346:	e8 35 fd ff ff       	callq  401080 <puts@plt>
  40134b:	48 8d 3d 16 1d 00 00 	lea    0x1d16(%rip),%rdi        # 403068 <_IO_stdin_used+0x68>
  401352:	e8 29 fd ff ff       	callq  401080 <puts@plt>
  401357:	48 8d 3d 74 1e 00 00 	lea    0x1e74(%rip),%rdi        # 4031d2 <_IO_stdin_used+0x1d2>
  40135e:	e8 1d fd ff ff       	callq  401080 <puts@plt>
  401363:	bf 00 00 00 00       	mov    $0x0,%edi
  401368:	e8 83 fe ff ff       	callq  4011f0 <exit@plt>
  40136d:	48 8d 3d 7a 1e 00 00 	lea    0x1e7a(%rip),%rdi        # 4031ee <_IO_stdin_used+0x1ee>
  401374:	b8 00 00 00 00       	mov    $0x0,%eax
  401379:	e8 32 fd ff ff       	callq  4010b0 <printf@plt>
  40137e:	48 8d 3d 0b 1d 00 00 	lea    0x1d0b(%rip),%rdi        # 403090 <_IO_stdin_used+0x90>
  401385:	e8 f6 fc ff ff       	callq  401080 <puts@plt>
  40138a:	48 8d 3d 27 1d 00 00 	lea    0x1d27(%rip),%rdi        # 4030b8 <_IO_stdin_used+0xb8>
  401391:	e8 ea fc ff ff       	callq  401080 <puts@plt>
  401396:	48 8d 3d 6f 1e 00 00 	lea    0x1e6f(%rip),%rdi        # 40320c <_IO_stdin_used+0x20c>
  40139d:	e8 de fc ff ff       	callq  401080 <puts@plt>
  4013a2:	eb bf                	jmp    401363 <usage+0x51>

00000000004013a4 <initialize_target>:
  4013a4:	55                   	push   %rbp
  4013a5:	53                   	push   %rbx
  4013a6:	48 81 ec 08 21 00 00 	sub    $0x2108,%rsp
  4013ad:	89 f5                	mov    %esi,%ebp
  4013af:	89 3d 47 51 00 00    	mov    %edi,0x5147(%rip)        # 4064fc <check_level>
  4013b5:	8b 3d 75 4d 00 00    	mov    0x4d75(%rip),%edi        # 406130 <target_id>
  4013bb:	e8 c7 1a 00 00       	callq  402e87 <gencookie>
  4013c0:	89 05 42 51 00 00    	mov    %eax,0x5142(%rip)        # 406508 <cookie>
  4013c6:	89 c7                	mov    %eax,%edi
  4013c8:	e8 ba 1a 00 00       	callq  402e87 <gencookie>
  4013cd:	89 05 31 51 00 00    	mov    %eax,0x5131(%rip)        # 406504 <authkey>
  4013d3:	8b 05 57 4d 00 00    	mov    0x4d57(%rip),%eax        # 406130 <target_id>
  4013d9:	8d 78 01             	lea    0x1(%rax),%edi
  4013dc:	e8 6f fc ff ff       	callq  401050 <srandom@plt>
  4013e1:	e8 7a fd ff ff       	callq  401160 <random@plt>
  4013e6:	89 c7                	mov    %eax,%edi
  4013e8:	e8 de 02 00 00       	callq  4016cb <scramble>
  4013ed:	89 c3                	mov    %eax,%ebx
  4013ef:	85 ed                	test   %ebp,%ebp
  4013f1:	75 3d                	jne    401430 <initialize_target+0x8c>
  4013f3:	b8 00 00 00 00       	mov    $0x0,%eax
  4013f8:	01 d8                	add    %ebx,%eax
  4013fa:	0f b7 c0             	movzwl %ax,%eax
  4013fd:	8d 04 c5 00 01 00 00 	lea    0x100(,%rax,8),%eax
  401404:	89 c0                	mov    %eax,%eax
  401406:	48 89 05 73 50 00 00 	mov    %rax,0x5073(%rip)        # 406480 <buf_offset>
  40140d:	c6 05 14 5d 00 00 63 	movb   $0x63,0x5d14(%rip)        # 407128 <target_prefix>
  401414:	83 3d dd 50 00 00 00 	cmpl   $0x0,0x50dd(%rip)        # 4064f8 <notify>
  40141b:	74 09                	je     401426 <initialize_target+0x82>
  40141d:	83 3d e8 50 00 00 00 	cmpl   $0x0,0x50e8(%rip)        # 40650c <is_checker>
  401424:	74 22                	je     401448 <initialize_target+0xa4>
  401426:	48 81 c4 08 21 00 00 	add    $0x2108,%rsp
  40142d:	5b                   	pop    %rbx
  40142e:	5d                   	pop    %rbp
  40142f:	c3                   	retq   
  401430:	bf 00 00 00 00       	mov    $0x0,%edi
  401435:	e8 16 fd ff ff       	callq  401150 <time@plt>
  40143a:	89 c7                	mov    %eax,%edi
  40143c:	e8 0f fc ff ff       	callq  401050 <srandom@plt>
  401441:	e8 1a fd ff ff       	callq  401160 <random@plt>
  401446:	eb b0                	jmp    4013f8 <initialize_target+0x54>
  401448:	48 89 e7             	mov    %rsp,%rdi
  40144b:	be 00 01 00 00       	mov    $0x100,%esi
  401450:	e8 7b fd ff ff       	callq  4011d0 <gethostname@plt>
  401455:	89 c5                	mov    %eax,%ebp
  401457:	85 c0                	test   %eax,%eax
  401459:	75 26                	jne    401481 <initialize_target+0xdd>
  40145b:	89 c3                	mov    %eax,%ebx
  40145d:	48 63 c3             	movslq %ebx,%rax
  401460:	48 8d 15 f9 4c 00 00 	lea    0x4cf9(%rip),%rdx        # 406160 <host_table>
  401467:	48 8b 3c c2          	mov    (%rdx,%rax,8),%rdi
  40146b:	48 85 ff             	test   %rdi,%rdi
  40146e:	74 2c                	je     40149c <initialize_target+0xf8>
  401470:	48 89 e6             	mov    %rsp,%rsi
  401473:	e8 b8 fb ff ff       	callq  401030 <strcasecmp@plt>
  401478:	85 c0                	test   %eax,%eax
  40147a:	74 1b                	je     401497 <initialize_target+0xf3>
  40147c:	83 c3 01             	add    $0x1,%ebx
  40147f:	eb dc                	jmp    40145d <initialize_target+0xb9>
  401481:	48 8d 3d 60 1c 00 00 	lea    0x1c60(%rip),%rdi        # 4030e8 <_IO_stdin_used+0xe8>
  401488:	e8 f3 fb ff ff       	callq  401080 <puts@plt>
  40148d:	bf 08 00 00 00       	mov    $0x8,%edi
  401492:	e8 59 fd ff ff       	callq  4011f0 <exit@plt>
  401497:	bd 01 00 00 00       	mov    $0x1,%ebp
  40149c:	85 ed                	test   %ebp,%ebp
  40149e:	74 38                	je     4014d8 <initialize_target+0x134>
  4014a0:	48 8d bc 24 00 01 00 	lea    0x100(%rsp),%rdi
  4014a7:	00 
  4014a8:	e8 3f 17 00 00       	callq  402bec <init_driver>
  4014ad:	85 c0                	test   %eax,%eax
  4014af:	0f 89 71 ff ff ff    	jns    401426 <initialize_target+0x82>
  4014b5:	48 8d b4 24 00 01 00 	lea    0x100(%rsp),%rsi
  4014bc:	00 
  4014bd:	48 8d 3d 9c 1c 00 00 	lea    0x1c9c(%rip),%rdi        # 403160 <_IO_stdin_used+0x160>
  4014c4:	b8 00 00 00 00       	mov    $0x0,%eax
  4014c9:	e8 e2 fb ff ff       	callq  4010b0 <printf@plt>
  4014ce:	bf 08 00 00 00       	mov    $0x8,%edi
  4014d3:	e8 18 fd ff ff       	callq  4011f0 <exit@plt>
  4014d8:	48 89 e6             	mov    %rsp,%rsi
  4014db:	48 8d 3d 3e 1c 00 00 	lea    0x1c3e(%rip),%rdi        # 403120 <_IO_stdin_used+0x120>
  4014e2:	b8 00 00 00 00       	mov    $0x0,%eax
  4014e7:	e8 c4 fb ff ff       	callq  4010b0 <printf@plt>
  4014ec:	bf 08 00 00 00       	mov    $0x8,%edi
  4014f1:	e8 fa fc ff ff       	callq  4011f0 <exit@plt>

00000000004014f6 <main>:
  4014f6:	41 56                	push   %r14
  4014f8:	41 55                	push   %r13
  4014fa:	41 54                	push   %r12
  4014fc:	55                   	push   %rbp
  4014fd:	53                   	push   %rbx
  4014fe:	89 fd                	mov    %edi,%ebp
  401500:	48 89 f3             	mov    %rsi,%rbx
  401503:	48 c7 c6 be 1f 40 00 	mov    $0x401fbe,%rsi
  40150a:	bf 0b 00 00 00       	mov    $0xb,%edi
  40150f:	e8 ec fb ff ff       	callq  401100 <signal@plt>
  401514:	48 c7 c6 6a 1f 40 00 	mov    $0x401f6a,%rsi
  40151b:	bf 07 00 00 00       	mov    $0x7,%edi
  401520:	e8 db fb ff ff       	callq  401100 <signal@plt>
  401525:	48 c7 c6 12 20 40 00 	mov    $0x402012,%rsi
  40152c:	bf 04 00 00 00       	mov    $0x4,%edi
  401531:	e8 ca fb ff ff       	callq  401100 <signal@plt>
  401536:	83 3d cf 4f 00 00 00 	cmpl   $0x0,0x4fcf(%rip)        # 40650c <is_checker>
  40153d:	75 26                	jne    401565 <main+0x6f>
  40153f:	4c 8d 25 e7 1c 00 00 	lea    0x1ce7(%rip),%r12        # 40322d <_IO_stdin_used+0x22d>
  401546:	48 8b 05 53 4f 00 00 	mov    0x4f53(%rip),%rax        # 4064a0 <stdin@@GLIBC_2.2.5>
  40154d:	48 89 05 9c 4f 00 00 	mov    %rax,0x4f9c(%rip)        # 4064f0 <infile>
  401554:	41 bd 00 00 00 00    	mov    $0x0,%r13d
  40155a:	41 be 00 00 00 00    	mov    $0x0,%r14d
  401560:	e9 88 00 00 00       	jmpq   4015ed <main+0xf7>
  401565:	48 c7 c6 66 20 40 00 	mov    $0x402066,%rsi
  40156c:	bf 0e 00 00 00       	mov    $0xe,%edi
  401571:	e8 8a fb ff ff       	callq  401100 <signal@plt>
  401576:	bf 05 00 00 00       	mov    $0x5,%edi
  40157b:	e8 50 fb ff ff       	callq  4010d0 <alarm@plt>
  401580:	4c 8d 25 9e 1c 00 00 	lea    0x1c9e(%rip),%r12        # 403225 <_IO_stdin_used+0x225>
  401587:	eb bd                	jmp    401546 <main+0x50>
  401589:	48 8b 3b             	mov    (%rbx),%rdi
  40158c:	e8 81 fd ff ff       	callq  401312 <usage>
  401591:	48 8d 35 da 1e 00 00 	lea    0x1eda(%rip),%rsi        # 403472 <_IO_stdin_used+0x472>
  401598:	48 8b 3d 09 4f 00 00 	mov    0x4f09(%rip),%rdi        # 4064a8 <optarg@@GLIBC_2.2.5>
  40159f:	e8 fc fb ff ff       	callq  4011a0 <fopen@plt>
  4015a4:	48 89 05 45 4f 00 00 	mov    %rax,0x4f45(%rip)        # 4064f0 <infile>
  4015ab:	48 85 c0             	test   %rax,%rax
  4015ae:	75 3d                	jne    4015ed <main+0xf7>
  4015b0:	48 8b 15 f1 4e 00 00 	mov    0x4ef1(%rip),%rdx        # 4064a8 <optarg@@GLIBC_2.2.5>
  4015b7:	48 8d 35 74 1c 00 00 	lea    0x1c74(%rip),%rsi        # 403232 <_IO_stdin_used+0x232>
  4015be:	48 8b 3d fb 4e 00 00 	mov    0x4efb(%rip),%rdi        # 4064c0 <stderr@@GLIBC_2.2.5>
  4015c5:	e8 56 fb ff ff       	callq  401120 <fprintf@plt>
  4015ca:	b8 01 00 00 00       	mov    $0x1,%eax
  4015cf:	e9 ce 00 00 00       	jmpq   4016a2 <main+0x1ac>
  4015d4:	ba 10 00 00 00       	mov    $0x10,%edx
  4015d9:	be 00 00 00 00       	mov    $0x0,%esi
  4015de:	48 8b 3d c3 4e 00 00 	mov    0x4ec3(%rip),%rdi        # 4064a8 <optarg@@GLIBC_2.2.5>
  4015e5:	e8 d6 fb ff ff       	callq  4011c0 <strtoul@plt>
  4015ea:	41 89 c6             	mov    %eax,%r14d
  4015ed:	4c 89 e2             	mov    %r12,%rdx
  4015f0:	48 89 de             	mov    %rbx,%rsi
  4015f3:	89 ef                	mov    %ebp,%edi
  4015f5:	e8 b6 fb ff ff       	callq  4011b0 <getopt@plt>
  4015fa:	3c ff                	cmp    $0xff,%al
  4015fc:	74 5d                	je     40165b <main+0x165>
  4015fe:	0f be f0             	movsbl %al,%esi
  401601:	83 e8 61             	sub    $0x61,%eax
  401604:	3c 10                	cmp    $0x10,%al
  401606:	77 3a                	ja     401642 <main+0x14c>
  401608:	0f b6 c0             	movzbl %al,%eax
  40160b:	48 8d 15 5e 1c 00 00 	lea    0x1c5e(%rip),%rdx        # 403270 <_IO_stdin_used+0x270>
  401612:	48 63 04 82          	movslq (%rdx,%rax,4),%rax
  401616:	48 01 d0             	add    %rdx,%rax
  401619:	ff e0                	jmpq   *%rax
  40161b:	ba 0a 00 00 00       	mov    $0xa,%edx
  401620:	be 00 00 00 00       	mov    $0x0,%esi
  401625:	48 8b 3d 7c 4e 00 00 	mov    0x4e7c(%rip),%rdi        # 4064a8 <optarg@@GLIBC_2.2.5>
  40162c:	e8 ff fa ff ff       	callq  401130 <strtol@plt>
  401631:	41 89 c5             	mov    %eax,%r13d
  401634:	eb b7                	jmp    4015ed <main+0xf7>
  401636:	c7 05 b8 4e 00 00 00 	movl   $0x0,0x4eb8(%rip)        # 4064f8 <notify>
  40163d:	00 00 00 
  401640:	eb ab                	jmp    4015ed <main+0xf7>
  401642:	48 8d 3d 06 1c 00 00 	lea    0x1c06(%rip),%rdi        # 40324f <_IO_stdin_used+0x24f>
  401649:	b8 00 00 00 00       	mov    $0x0,%eax
  40164e:	e8 5d fa ff ff       	callq  4010b0 <printf@plt>
  401653:	48 8b 3b             	mov    (%rbx),%rdi
  401656:	e8 b7 fc ff ff       	callq  401312 <usage>
  40165b:	be 00 00 00 00       	mov    $0x0,%esi
  401660:	44 89 ef             	mov    %r13d,%edi
  401663:	e8 3c fd ff ff       	callq  4013a4 <initialize_target>
  401668:	83 3d 9d 4e 00 00 00 	cmpl   $0x0,0x4e9d(%rip)        # 40650c <is_checker>
  40166f:	74 09                	je     40167a <main+0x184>
  401671:	44 39 35 8c 4e 00 00 	cmp    %r14d,0x4e8c(%rip)        # 406504 <authkey>
  401678:	75 31                	jne    4016ab <main+0x1b5>
  40167a:	8b 35 88 4e 00 00    	mov    0x4e88(%rip),%esi        # 406508 <cookie>
  401680:	48 8d 3d db 1b 00 00 	lea    0x1bdb(%rip),%rdi        # 403262 <_IO_stdin_used+0x262>
  401687:	b8 00 00 00 00       	mov    $0x0,%eax
  40168c:	e8 1f fa ff ff       	callq  4010b0 <printf@plt>
  401691:	48 8b 3d e8 4d 00 00 	mov    0x4de8(%rip),%rdi        # 406480 <buf_offset>
  401698:	e8 a4 0a 00 00       	callq  402141 <stable_launch>
  40169d:	b8 00 00 00 00       	mov    $0x0,%eax
  4016a2:	5b                   	pop    %rbx
  4016a3:	5d                   	pop    %rbp
  4016a4:	41 5c                	pop    %r12
  4016a6:	41 5d                	pop    %r13
  4016a8:	41 5e                	pop    %r14
  4016aa:	c3                   	retq   
  4016ab:	44 89 f6             	mov    %r14d,%esi
  4016ae:	48 8d 3d d3 1a 00 00 	lea    0x1ad3(%rip),%rdi        # 403188 <_IO_stdin_used+0x188>
  4016b5:	b8 00 00 00 00       	mov    $0x0,%eax
  4016ba:	e8 f1 f9 ff ff       	callq  4010b0 <printf@plt>
  4016bf:	b8 00 00 00 00       	mov    $0x0,%eax
  4016c4:	e8 8e 06 00 00       	callq  401d57 <check_fail>
  4016c9:	eb af                	jmp    40167a <main+0x184>

00000000004016cb <scramble>:
  4016cb:	b8 00 00 00 00       	mov    $0x0,%eax
  4016d0:	83 f8 09             	cmp    $0x9,%eax
  4016d3:	77 13                	ja     4016e8 <scramble+0x1d>
  4016d5:	69 d0 3c bb 00 00    	imul   $0xbb3c,%eax,%edx
  4016db:	01 fa                	add    %edi,%edx
  4016dd:	89 c1                	mov    %eax,%ecx
  4016df:	89 54 8c d0          	mov    %edx,-0x30(%rsp,%rcx,4)
  4016e3:	83 c0 01             	add    $0x1,%eax
  4016e6:	eb e8                	jmp    4016d0 <scramble+0x5>
  4016e8:	8b 44 24 d8          	mov    -0x28(%rsp),%eax
  4016ec:	69 c0 0e 0d 00 00    	imul   $0xd0e,%eax,%eax
  4016f2:	89 44 24 d8          	mov    %eax,-0x28(%rsp)
  4016f6:	8b 44 24 e8          	mov    -0x18(%rsp),%eax
  4016fa:	69 c0 56 cd 00 00    	imul   $0xcd56,%eax,%eax
  401700:	89 44 24 e8          	mov    %eax,-0x18(%rsp)
  401704:	8b 44 24 e8          	mov    -0x18(%rsp),%eax
  401708:	69 c0 8c f8 00 00    	imul   $0xf88c,%eax,%eax
  40170e:	89 44 24 e8          	mov    %eax,-0x18(%rsp)
  401712:	8b 44 24 e8          	mov    -0x18(%rsp),%eax
  401716:	69 c0 dc 7f 00 00    	imul   $0x7fdc,%eax,%eax
  40171c:	89 44 24 e8          	mov    %eax,-0x18(%rsp)
  401720:	8b 44 24 e8          	mov    -0x18(%rsp),%eax
  401724:	69 c0 b3 ee 00 00    	imul   $0xeeb3,%eax,%eax
  40172a:	89 44 24 e8          	mov    %eax,-0x18(%rsp)
  40172e:	8b 44 24 f0          	mov    -0x10(%rsp),%eax
  401732:	69 c0 c7 a7 00 00    	imul   $0xa7c7,%eax,%eax
  401738:	89 44 24 f0          	mov    %eax,-0x10(%rsp)
  40173c:	8b 44 24 e0          	mov    -0x20(%rsp),%eax
  401740:	69 c0 04 7e 00 00    	imul   $0x7e04,%eax,%eax
  401746:	89 44 24 e0          	mov    %eax,-0x20(%rsp)
  40174a:	8b 44 24 d4          	mov    -0x2c(%rsp),%eax
  40174e:	69 c0 cc 3a 00 00    	imul   $0x3acc,%eax,%eax
  401754:	89 44 24 d4          	mov    %eax,-0x2c(%rsp)
  401758:	8b 44 24 d4          	mov    -0x2c(%rsp),%eax
  40175c:	69 c0 cd 79 00 00    	imul   $0x79cd,%eax,%eax
  401762:	89 44 24 d4          	mov    %eax,-0x2c(%rsp)
  401766:	8b 44 24 ec          	mov    -0x14(%rsp),%eax
  40176a:	69 c0 23 c1 00 00    	imul   $0xc123,%eax,%eax
  401770:	89 44 24 ec          	mov    %eax,-0x14(%rsp)
  401774:	8b 44 24 ec          	mov    -0x14(%rsp),%eax
  401778:	69 c0 af e0 00 00    	imul   $0xe0af,%eax,%eax
  40177e:	89 44 24 ec          	mov    %eax,-0x14(%rsp)
  401782:	8b 44 24 f0          	mov    -0x10(%rsp),%eax
  401786:	69 c0 c4 d9 00 00    	imul   $0xd9c4,%eax,%eax
  40178c:	89 44 24 f0          	mov    %eax,-0x10(%rsp)
  401790:	8b 44 24 d0          	mov    -0x30(%rsp),%eax
  401794:	69 c0 96 77 00 00    	imul   $0x7796,%eax,%eax
  40179a:	89 44 24 d0          	mov    %eax,-0x30(%rsp)
  40179e:	8b 44 24 f4          	mov    -0xc(%rsp),%eax
  4017a2:	69 c0 40 17 00 00    	imul   $0x1740,%eax,%eax
  4017a8:	89 44 24 f4          	mov    %eax,-0xc(%rsp)
  4017ac:	8b 44 24 d4          	mov    -0x2c(%rsp),%eax
  4017b0:	69 c0 63 40 00 00    	imul   $0x4063,%eax,%eax
  4017b6:	89 44 24 d4          	mov    %eax,-0x2c(%rsp)
  4017ba:	8b 44 24 f4          	mov    -0xc(%rsp),%eax
  4017be:	69 c0 75 f9 00 00    	imul   $0xf975,%eax,%eax
  4017c4:	89 44 24 f4          	mov    %eax,-0xc(%rsp)
  4017c8:	8b 44 24 ec          	mov    -0x14(%rsp),%eax
  4017cc:	69 c0 ff dd 00 00    	imul   $0xddff,%eax,%eax
  4017d2:	89 44 24 ec          	mov    %eax,-0x14(%rsp)
  4017d6:	8b 44 24 dc          	mov    -0x24(%rsp),%eax
  4017da:	69 c0 35 56 00 00    	imul   $0x5635,%eax,%eax
  4017e0:	89 44 24 dc          	mov    %eax,-0x24(%rsp)
  4017e4:	8b 44 24 ec          	mov    -0x14(%rsp),%eax
  4017e8:	69 c0 44 8f 00 00    	imul   $0x8f44,%eax,%eax
  4017ee:	89 44 24 ec          	mov    %eax,-0x14(%rsp)
  4017f2:	8b 44 24 d4          	mov    -0x2c(%rsp),%eax
  4017f6:	69 c0 e9 62 00 00    	imul   $0x62e9,%eax,%eax
  4017fc:	89 44 24 d4          	mov    %eax,-0x2c(%rsp)
  401800:	8b 44 24 d0          	mov    -0x30(%rsp),%eax
  401804:	69 c0 cb ad 00 00    	imul   $0xadcb,%eax,%eax
  40180a:	89 44 24 d0          	mov    %eax,-0x30(%rsp)
  40180e:	8b 44 24 e0          	mov    -0x20(%rsp),%eax
  401812:	69 c0 32 49 00 00    	imul   $0x4932,%eax,%eax
  401818:	89 44 24 e0          	mov    %eax,-0x20(%rsp)
  40181c:	8b 44 24 d0          	mov    -0x30(%rsp),%eax
  401820:	69 c0 80 5a 00 00    	imul   $0x5a80,%eax,%eax
  401826:	89 44 24 d0          	mov    %eax,-0x30(%rsp)
  40182a:	8b 44 24 d0          	mov    -0x30(%rsp),%eax
  40182e:	69 c0 e9 7b 00 00    	imul   $0x7be9,%eax,%eax
  401834:	89 44 24 d0          	mov    %eax,-0x30(%rsp)
  401838:	8b 44 24 e8          	mov    -0x18(%rsp),%eax
  40183c:	69 c0 72 b9 00 00    	imul   $0xb972,%eax,%eax
  401842:	89 44 24 e8          	mov    %eax,-0x18(%rsp)
  401846:	8b 44 24 dc          	mov    -0x24(%rsp),%eax
  40184a:	69 c0 b7 ae 00 00    	imul   $0xaeb7,%eax,%eax
  401850:	89 44 24 dc          	mov    %eax,-0x24(%rsp)
  401854:	8b 44 24 dc          	mov    -0x24(%rsp),%eax
  401858:	69 c0 3e 3e 00 00    	imul   $0x3e3e,%eax,%eax
  40185e:	89 44 24 dc          	mov    %eax,-0x24(%rsp)
  401862:	8b 44 24 d0          	mov    -0x30(%rsp),%eax
  401866:	69 c0 b2 50 00 00    	imul   $0x50b2,%eax,%eax
  40186c:	89 44 24 d0          	mov    %eax,-0x30(%rsp)
  401870:	8b 44 24 e8          	mov    -0x18(%rsp),%eax
  401874:	69 c0 52 7e 00 00    	imul   $0x7e52,%eax,%eax
  40187a:	89 44 24 e8          	mov    %eax,-0x18(%rsp)
  40187e:	8b 44 24 d4          	mov    -0x2c(%rsp),%eax
  401882:	69 c0 0d f4 00 00    	imul   $0xf40d,%eax,%eax
  401888:	89 44 24 d4          	mov    %eax,-0x2c(%rsp)
  40188c:	8b 44 24 e4          	mov    -0x1c(%rsp),%eax
  401890:	69 c0 a5 42 00 00    	imul   $0x42a5,%eax,%eax
  401896:	89 44 24 e4          	mov    %eax,-0x1c(%rsp)
  40189a:	8b 44 24 e4          	mov    -0x1c(%rsp),%eax
  40189e:	69 c0 26 0c 00 00    	imul   $0xc26,%eax,%eax
  4018a4:	89 44 24 e4          	mov    %eax,-0x1c(%rsp)
  4018a8:	8b 44 24 ec          	mov    -0x14(%rsp),%eax
  4018ac:	69 c0 4e b4 00 00    	imul   $0xb44e,%eax,%eax
  4018b2:	89 44 24 ec          	mov    %eax,-0x14(%rsp)
  4018b6:	8b 44 24 f0          	mov    -0x10(%rsp),%eax
  4018ba:	69 c0 30 f7 00 00    	imul   $0xf730,%eax,%eax
  4018c0:	89 44 24 f0          	mov    %eax,-0x10(%rsp)
  4018c4:	8b 44 24 d0          	mov    -0x30(%rsp),%eax
  4018c8:	69 c0 6d 38 00 00    	imul   $0x386d,%eax,%eax
  4018ce:	89 44 24 d0          	mov    %eax,-0x30(%rsp)
  4018d2:	8b 44 24 d0          	mov    -0x30(%rsp),%eax
  4018d6:	69 c0 8a c1 00 00    	imul   $0xc18a,%eax,%eax
  4018dc:	89 44 24 d0          	mov    %eax,-0x30(%rsp)
  4018e0:	8b 44 24 e0          	mov    -0x20(%rsp),%eax
  4018e4:	69 c0 ca 64 00 00    	imul   $0x64ca,%eax,%eax
  4018ea:	89 44 24 e0          	mov    %eax,-0x20(%rsp)
  4018ee:	8b 44 24 ec          	mov    -0x14(%rsp),%eax
  4018f2:	69 c0 08 12 00 00    	imul   $0x1208,%eax,%eax
  4018f8:	89 44 24 ec          	mov    %eax,-0x14(%rsp)
  4018fc:	8b 44 24 e0          	mov    -0x20(%rsp),%eax
  401900:	69 c0 ba 8e 00 00    	imul   $0x8eba,%eax,%eax
  401906:	89 44 24 e0          	mov    %eax,-0x20(%rsp)
  40190a:	8b 44 24 f0          	mov    -0x10(%rsp),%eax
  40190e:	69 c0 99 93 00 00    	imul   $0x9399,%eax,%eax
  401914:	89 44 24 f0          	mov    %eax,-0x10(%rsp)
  401918:	8b 44 24 f0          	mov    -0x10(%rsp),%eax
  40191c:	69 c0 fe ca 00 00    	imul   $0xcafe,%eax,%eax
  401922:	89 44 24 f0          	mov    %eax,-0x10(%rsp)
  401926:	8b 44 24 e8          	mov    -0x18(%rsp),%eax
  40192a:	69 c0 4e e2 00 00    	imul   $0xe24e,%eax,%eax
  401930:	89 44 24 e8          	mov    %eax,-0x18(%rsp)
  401934:	8b 44 24 f0          	mov    -0x10(%rsp),%eax
  401938:	69 c0 cb ca 00 00    	imul   $0xcacb,%eax,%eax
  40193e:	89 44 24 f0          	mov    %eax,-0x10(%rsp)
  401942:	8b 44 24 ec          	mov    -0x14(%rsp),%eax
  401946:	69 c0 10 bf 00 00    	imul   $0xbf10,%eax,%eax
  40194c:	89 44 24 ec          	mov    %eax,-0x14(%rsp)
  401950:	8b 44 24 e8          	mov    -0x18(%rsp),%eax
  401954:	69 c0 f2 9a 00 00    	imul   $0x9af2,%eax,%eax
  40195a:	89 44 24 e8          	mov    %eax,-0x18(%rsp)
  40195e:	8b 44 24 f0          	mov    -0x10(%rsp),%eax
  401962:	69 c0 d2 07 00 00    	imul   $0x7d2,%eax,%eax
  401968:	89 44 24 f0          	mov    %eax,-0x10(%rsp)
  40196c:	8b 44 24 d0          	mov    -0x30(%rsp),%eax
  401970:	69 c0 a1 a0 00 00    	imul   $0xa0a1,%eax,%eax
  401976:	89 44 24 d0          	mov    %eax,-0x30(%rsp)
  40197a:	8b 44 24 e4          	mov    -0x1c(%rsp),%eax
  40197e:	69 c0 3d fe 00 00    	imul   $0xfe3d,%eax,%eax
  401984:	89 44 24 e4          	mov    %eax,-0x1c(%rsp)
  401988:	8b 44 24 e4          	mov    -0x1c(%rsp),%eax
  40198c:	69 c0 54 76 00 00    	imul   $0x7654,%eax,%eax
  401992:	89 44 24 e4          	mov    %eax,-0x1c(%rsp)
  401996:	8b 44 24 e4          	mov    -0x1c(%rsp),%eax
  40199a:	69 c0 82 98 00 00    	imul   $0x9882,%eax,%eax
  4019a0:	89 44 24 e4          	mov    %eax,-0x1c(%rsp)
  4019a4:	8b 44 24 e8          	mov    -0x18(%rsp),%eax
  4019a8:	69 c0 87 4f 00 00    	imul   $0x4f87,%eax,%eax
  4019ae:	89 44 24 e8          	mov    %eax,-0x18(%rsp)
  4019b2:	8b 44 24 f0          	mov    -0x10(%rsp),%eax
  4019b6:	69 c0 f9 94 00 00    	imul   $0x94f9,%eax,%eax
  4019bc:	89 44 24 f0          	mov    %eax,-0x10(%rsp)
  4019c0:	8b 44 24 e0          	mov    -0x20(%rsp),%eax
  4019c4:	69 c0 c8 64 00 00    	imul   $0x64c8,%eax,%eax
  4019ca:	89 44 24 e0          	mov    %eax,-0x20(%rsp)
  4019ce:	8b 44 24 f0          	mov    -0x10(%rsp),%eax
  4019d2:	69 c0 9d 73 00 00    	imul   $0x739d,%eax,%eax
  4019d8:	89 44 24 f0          	mov    %eax,-0x10(%rsp)
  4019dc:	8b 44 24 e8          	mov    -0x18(%rsp),%eax
  4019e0:	69 c0 f4 34 00 00    	imul   $0x34f4,%eax,%eax
  4019e6:	89 44 24 e8          	mov    %eax,-0x18(%rsp)
  4019ea:	8b 44 24 f0          	mov    -0x10(%rsp),%eax
  4019ee:	69 c0 af 3b 00 00    	imul   $0x3baf,%eax,%eax
  4019f4:	89 44 24 f0          	mov    %eax,-0x10(%rsp)
  4019f8:	8b 44 24 dc          	mov    -0x24(%rsp),%eax
  4019fc:	69 c0 86 49 00 00    	imul   $0x4986,%eax,%eax
  401a02:	89 44 24 dc          	mov    %eax,-0x24(%rsp)
  401a06:	8b 44 24 ec          	mov    -0x14(%rsp),%eax
  401a0a:	69 c0 2f 09 00 00    	imul   $0x92f,%eax,%eax
  401a10:	89 44 24 ec          	mov    %eax,-0x14(%rsp)
  401a14:	8b 44 24 dc          	mov    -0x24(%rsp),%eax
  401a18:	69 c0 fd 50 00 00    	imul   $0x50fd,%eax,%eax
  401a1e:	89 44 24 dc          	mov    %eax,-0x24(%rsp)
  401a22:	8b 44 24 f4          	mov    -0xc(%rsp),%eax
  401a26:	69 c0 6f 5d 00 00    	imul   $0x5d6f,%eax,%eax
  401a2c:	89 44 24 f4          	mov    %eax,-0xc(%rsp)
  401a30:	8b 44 24 ec          	mov    -0x14(%rsp),%eax
  401a34:	69 c0 5d 7b 00 00    	imul   $0x7b5d,%eax,%eax
  401a3a:	89 44 24 ec          	mov    %eax,-0x14(%rsp)
  401a3e:	8b 44 24 d8          	mov    -0x28(%rsp),%eax
  401a42:	69 c0 87 c9 00 00    	imul   $0xc987,%eax,%eax
  401a48:	89 44 24 d8          	mov    %eax,-0x28(%rsp)
  401a4c:	8b 44 24 d8          	mov    -0x28(%rsp),%eax
  401a50:	69 c0 3a 79 00 00    	imul   $0x793a,%eax,%eax
  401a56:	89 44 24 d8          	mov    %eax,-0x28(%rsp)
  401a5a:	8b 44 24 f0          	mov    -0x10(%rsp),%eax
  401a5e:	69 c0 ee 70 00 00    	imul   $0x70ee,%eax,%eax
  401a64:	89 44 24 f0          	mov    %eax,-0x10(%rsp)
  401a68:	8b 44 24 e0          	mov    -0x20(%rsp),%eax
  401a6c:	69 c0 32 bd 00 00    	imul   $0xbd32,%eax,%eax
  401a72:	89 44 24 e0          	mov    %eax,-0x20(%rsp)
  401a76:	8b 44 24 e4          	mov    -0x1c(%rsp),%eax
  401a7a:	69 c0 4f 9e 00 00    	imul   $0x9e4f,%eax,%eax
  401a80:	89 44 24 e4          	mov    %eax,-0x1c(%rsp)
  401a84:	8b 44 24 e0          	mov    -0x20(%rsp),%eax
  401a88:	69 c0 7c 63 00 00    	imul   $0x637c,%eax,%eax
  401a8e:	89 44 24 e0          	mov    %eax,-0x20(%rsp)
  401a92:	8b 44 24 e0          	mov    -0x20(%rsp),%eax
  401a96:	69 c0 0b c1 00 00    	imul   $0xc10b,%eax,%eax
  401a9c:	89 44 24 e0          	mov    %eax,-0x20(%rsp)
  401aa0:	8b 44 24 d8          	mov    -0x28(%rsp),%eax
  401aa4:	69 c0 4a da 00 00    	imul   $0xda4a,%eax,%eax
  401aaa:	89 44 24 d8          	mov    %eax,-0x28(%rsp)
  401aae:	8b 44 24 d0          	mov    -0x30(%rsp),%eax
  401ab2:	69 c0 c6 bb 00 00    	imul   $0xbbc6,%eax,%eax
  401ab8:	89 44 24 d0          	mov    %eax,-0x30(%rsp)
  401abc:	8b 44 24 d4          	mov    -0x2c(%rsp),%eax
  401ac0:	69 c0 de 3b 00 00    	imul   $0x3bde,%eax,%eax
  401ac6:	89 44 24 d4          	mov    %eax,-0x2c(%rsp)
  401aca:	8b 44 24 e0          	mov    -0x20(%rsp),%eax
  401ace:	69 c0 31 0f 00 00    	imul   $0xf31,%eax,%eax
  401ad4:	89 44 24 e0          	mov    %eax,-0x20(%rsp)
  401ad8:	8b 44 24 f0          	mov    -0x10(%rsp),%eax
  401adc:	69 c0 72 15 00 00    	imul   $0x1572,%eax,%eax
  401ae2:	89 44 24 f0          	mov    %eax,-0x10(%rsp)
  401ae6:	8b 44 24 d4          	mov    -0x2c(%rsp),%eax
  401aea:	69 c0 b6 99 00 00    	imul   $0x99b6,%eax,%eax
  401af0:	89 44 24 d4          	mov    %eax,-0x2c(%rsp)
  401af4:	8b 44 24 d4          	mov    -0x2c(%rsp),%eax
  401af8:	69 c0 9f e0 00 00    	imul   $0xe09f,%eax,%eax
  401afe:	89 44 24 d4          	mov    %eax,-0x2c(%rsp)
  401b02:	8b 44 24 dc          	mov    -0x24(%rsp),%eax
  401b06:	69 c0 5f 52 00 00    	imul   $0x525f,%eax,%eax
  401b0c:	89 44 24 dc          	mov    %eax,-0x24(%rsp)
  401b10:	8b 44 24 d0          	mov    -0x30(%rsp),%eax
  401b14:	69 c0 66 5c 00 00    	imul   $0x5c66,%eax,%eax
  401b1a:	89 44 24 d0          	mov    %eax,-0x30(%rsp)
  401b1e:	ba 00 00 00 00       	mov    $0x0,%edx
  401b23:	b8 00 00 00 00       	mov    $0x0,%eax
  401b28:	83 fa 09             	cmp    $0x9,%edx
  401b2b:	77 0d                	ja     401b3a <scramble+0x46f>
  401b2d:	89 d1                	mov    %edx,%ecx
  401b2f:	8b 4c 8c d0          	mov    -0x30(%rsp,%rcx,4),%ecx
  401b33:	01 c8                	add    %ecx,%eax
  401b35:	83 c2 01             	add    $0x1,%edx
  401b38:	eb ee                	jmp    401b28 <scramble+0x45d>
  401b3a:	c3                   	retq   

0000000000401b3b <getbuf>:
  401b3b:	48 83 ec 18          	sub    $0x18,%rsp
  401b3f:	48 89 e7             	mov    %rsp,%rdi
  401b42:	e8 43 02 00 00       	callq  401d8a <Gets>
  401b47:	b8 01 00 00 00       	mov    $0x1,%eax
  401b4c:	48 83 c4 18          	add    $0x18,%rsp
  401b50:	c3                   	retq   

0000000000401b51 <touch1>:
  401b51:	48 83 ec 08          	sub    $0x8,%rsp
  401b55:	c7 05 a1 49 00 00 01 	movl   $0x1,0x49a1(%rip)        # 406500 <vlevel>
  401b5c:	00 00 00 
  401b5f:	48 8d 3d ae 17 00 00 	lea    0x17ae(%rip),%rdi        # 403314 <_IO_stdin_used+0x314>
  401b66:	e8 15 f5 ff ff       	callq  401080 <puts@plt>
  401b6b:	bf 01 00 00 00       	mov    $0x1,%edi
  401b70:	e8 0f 03 00 00       	callq  401e84 <validate>
  401b75:	bf 00 00 00 00       	mov    $0x0,%edi
  401b7a:	e8 71 f6 ff ff       	callq  4011f0 <exit@plt>

0000000000401b7f <touch2>:
  401b7f:	48 83 ec 08          	sub    $0x8,%rsp
  401b83:	89 fe                	mov    %edi,%esi
  401b85:	c7 05 71 49 00 00 02 	movl   $0x2,0x4971(%rip)        # 406500 <vlevel>
  401b8c:	00 00 00 
  401b8f:	39 3d 73 49 00 00    	cmp    %edi,0x4973(%rip)        # 406508 <cookie>
  401b95:	74 25                	je     401bbc <touch2+0x3d>
  401b97:	48 8d 3d c2 17 00 00 	lea    0x17c2(%rip),%rdi        # 403360 <_IO_stdin_used+0x360>
  401b9e:	b8 00 00 00 00       	mov    $0x0,%eax
  401ba3:	e8 08 f5 ff ff       	callq  4010b0 <printf@plt>
  401ba8:	bf 02 00 00 00       	mov    $0x2,%edi
  401bad:	e8 90 03 00 00       	callq  401f42 <fail>
  401bb2:	bf 00 00 00 00       	mov    $0x0,%edi
  401bb7:	e8 34 f6 ff ff       	callq  4011f0 <exit@plt>
  401bbc:	48 8d 3d 75 17 00 00 	lea    0x1775(%rip),%rdi        # 403338 <_IO_stdin_used+0x338>
  401bc3:	b8 00 00 00 00       	mov    $0x0,%eax
  401bc8:	e8 e3 f4 ff ff       	callq  4010b0 <printf@plt>
  401bcd:	bf 02 00 00 00       	mov    $0x2,%edi
  401bd2:	e8 ad 02 00 00       	callq  401e84 <validate>
  401bd7:	eb d9                	jmp    401bb2 <touch2+0x33>

0000000000401bd9 <hexmatch>:
  401bd9:	41 54                	push   %r12
  401bdb:	55                   	push   %rbp
  401bdc:	53                   	push   %rbx
  401bdd:	48 83 ec 70          	sub    $0x70,%rsp
  401be1:	89 fd                	mov    %edi,%ebp
  401be3:	48 89 f3             	mov    %rsi,%rbx
  401be6:	e8 75 f5 ff ff       	callq  401160 <random@plt>
  401beb:	48 89 c1             	mov    %rax,%rcx
  401bee:	48 ba 0b d7 a3 70 3d 	movabs $0xa3d70a3d70a3d70b,%rdx
  401bf5:	0a d7 a3 
  401bf8:	48 f7 ea             	imul   %rdx
  401bfb:	48 01 ca             	add    %rcx,%rdx
  401bfe:	48 c1 fa 06          	sar    $0x6,%rdx
  401c02:	48 89 c8             	mov    %rcx,%rax
  401c05:	48 c1 f8 3f          	sar    $0x3f,%rax
  401c09:	48 29 c2             	sub    %rax,%rdx
  401c0c:	48 8d 04 92          	lea    (%rdx,%rdx,4),%rax
  401c10:	48 8d 14 80          	lea    (%rax,%rax,4),%rdx
  401c14:	48 8d 04 95 00 00 00 	lea    0x0(,%rdx,4),%rax
  401c1b:	00 
  401c1c:	48 29 c1             	sub    %rax,%rcx
  401c1f:	4c 8d 24 0c          	lea    (%rsp,%rcx,1),%r12
  401c23:	89 ea                	mov    %ebp,%edx
  401c25:	48 8d 35 05 17 00 00 	lea    0x1705(%rip),%rsi        # 403331 <_IO_stdin_used+0x331>
  401c2c:	4c 89 e7             	mov    %r12,%rdi
  401c2f:	b8 00 00 00 00       	mov    $0x0,%eax
  401c34:	e8 a7 f5 ff ff       	callq  4011e0 <sprintf@plt>
  401c39:	ba 09 00 00 00       	mov    $0x9,%edx
  401c3e:	4c 89 e6             	mov    %r12,%rsi
  401c41:	48 89 df             	mov    %rbx,%rdi
  401c44:	e8 17 f4 ff ff       	callq  401060 <strncmp@plt>
  401c49:	85 c0                	test   %eax,%eax
  401c4b:	0f 94 c0             	sete   %al
  401c4e:	0f b6 c0             	movzbl %al,%eax
  401c51:	48 83 c4 70          	add    $0x70,%rsp
  401c55:	5b                   	pop    %rbx
  401c56:	5d                   	pop    %rbp
  401c57:	41 5c                	pop    %r12
  401c59:	c3                   	retq   

0000000000401c5a <touch3>:
  401c5a:	53                   	push   %rbx
  401c5b:	48 89 fb             	mov    %rdi,%rbx
  401c5e:	c7 05 98 48 00 00 03 	movl   $0x3,0x4898(%rip)        # 406500 <vlevel>
  401c65:	00 00 00 
  401c68:	48 89 fe             	mov    %rdi,%rsi
  401c6b:	8b 3d 97 48 00 00    	mov    0x4897(%rip),%edi        # 406508 <cookie>
  401c71:	e8 63 ff ff ff       	callq  401bd9 <hexmatch>
  401c76:	85 c0                	test   %eax,%eax
  401c78:	74 28                	je     401ca2 <touch3+0x48>
  401c7a:	48 89 de             	mov    %rbx,%rsi
  401c7d:	48 8d 3d 04 17 00 00 	lea    0x1704(%rip),%rdi        # 403388 <_IO_stdin_used+0x388>
  401c84:	b8 00 00 00 00       	mov    $0x0,%eax
  401c89:	e8 22 f4 ff ff       	callq  4010b0 <printf@plt>
  401c8e:	bf 03 00 00 00       	mov    $0x3,%edi
  401c93:	e8 ec 01 00 00       	callq  401e84 <validate>
  401c98:	bf 00 00 00 00       	mov    $0x0,%edi
  401c9d:	e8 4e f5 ff ff       	callq  4011f0 <exit@plt>
  401ca2:	48 89 de             	mov    %rbx,%rsi
  401ca5:	48 8d 3d 04 17 00 00 	lea    0x1704(%rip),%rdi        # 4033b0 <_IO_stdin_used+0x3b0>
  401cac:	b8 00 00 00 00       	mov    $0x0,%eax
  401cb1:	e8 fa f3 ff ff       	callq  4010b0 <printf@plt>
  401cb6:	bf 03 00 00 00       	mov    $0x3,%edi
  401cbb:	e8 82 02 00 00       	callq  401f42 <fail>
  401cc0:	eb d6                	jmp    401c98 <touch3+0x3e>

0000000000401cc2 <test>:
  401cc2:	48 83 ec 08          	sub    $0x8,%rsp
  401cc6:	b8 00 00 00 00       	mov    $0x0,%eax
  401ccb:	e8 6b fe ff ff       	callq  401b3b <getbuf>
  401cd0:	89 c6                	mov    %eax,%esi
  401cd2:	48 8d 3d ff 16 00 00 	lea    0x16ff(%rip),%rdi        # 4033d8 <_IO_stdin_used+0x3d8>
  401cd9:	b8 00 00 00 00       	mov    $0x0,%eax
  401cde:	e8 cd f3 ff ff       	callq  4010b0 <printf@plt>
  401ce3:	48 83 c4 08          	add    $0x8,%rsp
  401ce7:	c3                   	retq   

0000000000401ce8 <save_char>:
  401ce8:	8b 05 36 54 00 00    	mov    0x5436(%rip),%eax        # 407124 <gets_cnt>
  401cee:	3d ff 03 00 00       	cmp    $0x3ff,%eax
  401cf3:	7f 4a                	jg     401d3f <save_char+0x57>
  401cf5:	89 f9                	mov    %edi,%ecx
  401cf7:	c0 e9 04             	shr    $0x4,%cl
  401cfa:	8d 14 40             	lea    (%rax,%rax,2),%edx
  401cfd:	4c 8d 05 4c 19 00 00 	lea    0x194c(%rip),%r8        # 403650 <trans_char>
  401d04:	83 e1 0f             	and    $0xf,%ecx
  401d07:	45 0f b6 0c 08       	movzbl (%r8,%rcx,1),%r9d
  401d0c:	48 8d 0d 0d 48 00 00 	lea    0x480d(%rip),%rcx        # 406520 <gets_buf>
  401d13:	48 63 f2             	movslq %edx,%rsi
  401d16:	44 88 0c 31          	mov    %r9b,(%rcx,%rsi,1)
  401d1a:	8d 72 01             	lea    0x1(%rdx),%esi
  401d1d:	83 e7 0f             	and    $0xf,%edi
  401d20:	41 0f b6 3c 38       	movzbl (%r8,%rdi,1),%edi
  401d25:	48 63 f6             	movslq %esi,%rsi
  401d28:	40 88 3c 31          	mov    %dil,(%rcx,%rsi,1)
  401d2c:	83 c2 02             	add    $0x2,%edx
  401d2f:	48 63 d2             	movslq %edx,%rdx
  401d32:	c6 04 11 20          	movb   $0x20,(%rcx,%rdx,1)
  401d36:	83 c0 01             	add    $0x1,%eax
  401d39:	89 05 e5 53 00 00    	mov    %eax,0x53e5(%rip)        # 407124 <gets_cnt>
  401d3f:	c3                   	retq   

0000000000401d40 <save_term>:
  401d40:	8b 05 de 53 00 00    	mov    0x53de(%rip),%eax        # 407124 <gets_cnt>
  401d46:	8d 04 40             	lea    (%rax,%rax,2),%eax
  401d49:	48 98                	cltq   
  401d4b:	48 8d 15 ce 47 00 00 	lea    0x47ce(%rip),%rdx        # 406520 <gets_buf>
  401d52:	c6 04 02 00          	movb   $0x0,(%rdx,%rax,1)
  401d56:	c3                   	retq   

0000000000401d57 <check_fail>:
  401d57:	48 83 ec 08          	sub    $0x8,%rsp
  401d5b:	0f be 35 c6 53 00 00 	movsbl 0x53c6(%rip),%esi        # 407128 <target_prefix>
  401d62:	48 8d 0d b7 47 00 00 	lea    0x47b7(%rip),%rcx        # 406520 <gets_buf>
  401d69:	8b 15 8d 47 00 00    	mov    0x478d(%rip),%edx        # 4064fc <check_level>
  401d6f:	48 8d 3d 85 16 00 00 	lea    0x1685(%rip),%rdi        # 4033fb <_IO_stdin_used+0x3fb>
  401d76:	b8 00 00 00 00       	mov    $0x0,%eax
  401d7b:	e8 30 f3 ff ff       	callq  4010b0 <printf@plt>
  401d80:	bf 01 00 00 00       	mov    $0x1,%edi
  401d85:	e8 66 f4 ff ff       	callq  4011f0 <exit@plt>

0000000000401d8a <Gets>:
  401d8a:	41 54                	push   %r12
  401d8c:	55                   	push   %rbp
  401d8d:	53                   	push   %rbx
  401d8e:	49 89 fc             	mov    %rdi,%r12
  401d91:	c7 05 89 53 00 00 00 	movl   $0x0,0x5389(%rip)        # 407124 <gets_cnt>
  401d98:	00 00 00 
  401d9b:	48 89 fb             	mov    %rdi,%rbx
  401d9e:	48 8b 3d 4b 47 00 00 	mov    0x474b(%rip),%rdi        # 4064f0 <infile>
  401da5:	e8 66 f4 ff ff       	callq  401210 <getc@plt>
  401daa:	83 f8 ff             	cmp    $0xffffffff,%eax
  401dad:	74 18                	je     401dc7 <Gets+0x3d>
  401daf:	83 f8 0a             	cmp    $0xa,%eax
  401db2:	74 13                	je     401dc7 <Gets+0x3d>
  401db4:	48 8d 6b 01          	lea    0x1(%rbx),%rbp
  401db8:	88 03                	mov    %al,(%rbx)
  401dba:	0f b6 f8             	movzbl %al,%edi
  401dbd:	e8 26 ff ff ff       	callq  401ce8 <save_char>
  401dc2:	48 89 eb             	mov    %rbp,%rbx
  401dc5:	eb d7                	jmp    401d9e <Gets+0x14>
  401dc7:	c6 03 00             	movb   $0x0,(%rbx)
  401dca:	b8 00 00 00 00       	mov    $0x0,%eax
  401dcf:	e8 6c ff ff ff       	callq  401d40 <save_term>
  401dd4:	4c 89 e0             	mov    %r12,%rax
  401dd7:	5b                   	pop    %rbx
  401dd8:	5d                   	pop    %rbp
  401dd9:	41 5c                	pop    %r12
  401ddb:	c3                   	retq   

0000000000401ddc <notify_server>:
  401ddc:	83 3d 29 47 00 00 00 	cmpl   $0x0,0x4729(%rip)        # 40650c <is_checker>
  401de3:	0f 85 9a 00 00 00    	jne    401e83 <notify_server+0xa7>
  401de9:	53                   	push   %rbx
  401dea:	48 81 ec 00 20 00 00 	sub    $0x2000,%rsp
  401df1:	81 3d 29 53 00 00 9c 	cmpl   $0x1f9c,0x5329(%rip)        # 407124 <gets_cnt>
  401df8:	1f 00 00 
  401dfb:	7f 5a                	jg     401e57 <notify_server+0x7b>
  401dfd:	44 0f be 0d 23 53 00 	movsbl 0x5323(%rip),%r9d        # 407128 <target_prefix>
  401e04:	00 
  401e05:	83 3d ec 46 00 00 00 	cmpl   $0x0,0x46ec(%rip)        # 4064f8 <notify>
  401e0c:	74 64                	je     401e72 <notify_server+0x96>
  401e0e:	44 8b 05 ef 46 00 00 	mov    0x46ef(%rip),%r8d        # 406504 <authkey>
  401e15:	85 ff                	test   %edi,%edi
  401e17:	74 61                	je     401e7a <notify_server+0x9e>
  401e19:	48 8d 1d f6 15 00 00 	lea    0x15f6(%rip),%rbx        # 403416 <_IO_stdin_used+0x416>
  401e20:	48 89 e7             	mov    %rsp,%rdi
  401e23:	48 8d 05 f6 46 00 00 	lea    0x46f6(%rip),%rax        # 406520 <gets_buf>
  401e2a:	50                   	push   %rax
  401e2b:	56                   	push   %rsi
  401e2c:	48 89 d9             	mov    %rbx,%rcx
  401e2f:	8b 15 fb 42 00 00    	mov    0x42fb(%rip),%edx        # 406130 <target_id>
  401e35:	48 8d 35 df 15 00 00 	lea    0x15df(%rip),%rsi        # 40341b <_IO_stdin_used+0x41b>
  401e3c:	b8 00 00 00 00       	mov    $0x0,%eax
  401e41:	e8 9a f3 ff ff       	callq  4011e0 <sprintf@plt>
  401e46:	48 89 df             	mov    %rbx,%rdi
  401e49:	e8 32 f2 ff ff       	callq  401080 <puts@plt>
  401e4e:	48 81 c4 10 20 00 00 	add    $0x2010,%rsp
  401e55:	5b                   	pop    %rbx
  401e56:	c3                   	retq   
  401e57:	48 8d 3d 82 16 00 00 	lea    0x1682(%rip),%rdi        # 4034e0 <_IO_stdin_used+0x4e0>
  401e5e:	b8 00 00 00 00       	mov    $0x0,%eax
  401e63:	e8 48 f2 ff ff       	callq  4010b0 <printf@plt>
  401e68:	bf 01 00 00 00       	mov    $0x1,%edi
  401e6d:	e8 7e f3 ff ff       	callq  4011f0 <exit@plt>
  401e72:	41 b8 ff ff ff ff    	mov    $0xffffffff,%r8d
  401e78:	eb 9b                	jmp    401e15 <notify_server+0x39>
  401e7a:	48 8d 1d 90 15 00 00 	lea    0x1590(%rip),%rbx        # 403411 <_IO_stdin_used+0x411>
  401e81:	eb 9d                	jmp    401e20 <notify_server+0x44>
  401e83:	c3                   	retq   

0000000000401e84 <validate>:
  401e84:	53                   	push   %rbx
  401e85:	89 fb                	mov    %edi,%ebx
  401e87:	83 3d 7e 46 00 00 00 	cmpl   $0x0,0x467e(%rip)        # 40650c <is_checker>
  401e8e:	74 68                	je     401ef8 <validate+0x74>
  401e90:	39 3d 6a 46 00 00    	cmp    %edi,0x466a(%rip)        # 406500 <vlevel>
  401e96:	75 2d                	jne    401ec5 <validate+0x41>
  401e98:	8b 35 5e 46 00 00    	mov    0x465e(%rip),%esi        # 4064fc <check_level>
  401e9e:	39 fe                	cmp    %edi,%esi
  401ea0:	75 39                	jne    401edb <validate+0x57>
  401ea2:	0f be 35 7f 52 00 00 	movsbl 0x527f(%rip),%esi        # 407128 <target_prefix>
  401ea9:	48 8d 0d 70 46 00 00 	lea    0x4670(%rip),%rcx        # 406520 <gets_buf>
  401eb0:	89 fa                	mov    %edi,%edx
  401eb2:	48 8d 3d 9c 15 00 00 	lea    0x159c(%rip),%rdi        # 403455 <_IO_stdin_used+0x455>
  401eb9:	b8 00 00 00 00       	mov    $0x0,%eax
  401ebe:	e8 ed f1 ff ff       	callq  4010b0 <printf@plt>
  401ec3:	5b                   	pop    %rbx
  401ec4:	c3                   	retq   
  401ec5:	48 8d 3d 6b 15 00 00 	lea    0x156b(%rip),%rdi        # 403437 <_IO_stdin_used+0x437>
  401ecc:	e8 af f1 ff ff       	callq  401080 <puts@plt>
  401ed1:	b8 00 00 00 00       	mov    $0x0,%eax
  401ed6:	e8 7c fe ff ff       	callq  401d57 <check_fail>
  401edb:	89 fa                	mov    %edi,%edx
  401edd:	48 8d 3d 2c 16 00 00 	lea    0x162c(%rip),%rdi        # 403510 <_IO_stdin_used+0x510>
  401ee4:	b8 00 00 00 00       	mov    $0x0,%eax
  401ee9:	e8 c2 f1 ff ff       	callq  4010b0 <printf@plt>
  401eee:	b8 00 00 00 00       	mov    $0x0,%eax
  401ef3:	e8 5f fe ff ff       	callq  401d57 <check_fail>
  401ef8:	39 3d 02 46 00 00    	cmp    %edi,0x4602(%rip)        # 406500 <vlevel>
  401efe:	74 1a                	je     401f1a <validate+0x96>
  401f00:	48 8d 3d 30 15 00 00 	lea    0x1530(%rip),%rdi        # 403437 <_IO_stdin_used+0x437>
  401f07:	e8 74 f1 ff ff       	callq  401080 <puts@plt>
  401f0c:	89 de                	mov    %ebx,%esi
  401f0e:	bf 00 00 00 00       	mov    $0x0,%edi
  401f13:	e8 c4 fe ff ff       	callq  401ddc <notify_server>
  401f18:	eb a9                	jmp    401ec3 <validate+0x3f>
  401f1a:	0f be 15 07 52 00 00 	movsbl 0x5207(%rip),%edx        # 407128 <target_prefix>
  401f21:	89 fe                	mov    %edi,%esi
  401f23:	48 8d 3d 0e 16 00 00 	lea    0x160e(%rip),%rdi        # 403538 <_IO_stdin_used+0x538>
  401f2a:	b8 00 00 00 00       	mov    $0x0,%eax
  401f2f:	e8 7c f1 ff ff       	callq  4010b0 <printf@plt>
  401f34:	89 de                	mov    %ebx,%esi
  401f36:	bf 01 00 00 00       	mov    $0x1,%edi
  401f3b:	e8 9c fe ff ff       	callq  401ddc <notify_server>
  401f40:	eb 81                	jmp    401ec3 <validate+0x3f>

0000000000401f42 <fail>:
  401f42:	48 83 ec 08          	sub    $0x8,%rsp
  401f46:	83 3d bf 45 00 00 00 	cmpl   $0x0,0x45bf(%rip)        # 40650c <is_checker>
  401f4d:	75 11                	jne    401f60 <fail+0x1e>
  401f4f:	89 fe                	mov    %edi,%esi
  401f51:	bf 00 00 00 00       	mov    $0x0,%edi
  401f56:	e8 81 fe ff ff       	callq  401ddc <notify_server>
  401f5b:	48 83 c4 08          	add    $0x8,%rsp
  401f5f:	c3                   	retq   
  401f60:	b8 00 00 00 00       	mov    $0x0,%eax
  401f65:	e8 ed fd ff ff       	callq  401d57 <check_fail>

0000000000401f6a <bushandler>:
  401f6a:	48 83 ec 08          	sub    $0x8,%rsp
  401f6e:	83 3d 97 45 00 00 00 	cmpl   $0x0,0x4597(%rip)        # 40650c <is_checker>
  401f75:	74 16                	je     401f8d <bushandler+0x23>
  401f77:	48 8d 3d ec 14 00 00 	lea    0x14ec(%rip),%rdi        # 40346a <_IO_stdin_used+0x46a>
  401f7e:	e8 fd f0 ff ff       	callq  401080 <puts@plt>
  401f83:	b8 00 00 00 00       	mov    $0x0,%eax
  401f88:	e8 ca fd ff ff       	callq  401d57 <check_fail>
  401f8d:	48 8d 3d dc 15 00 00 	lea    0x15dc(%rip),%rdi        # 403570 <_IO_stdin_used+0x570>
  401f94:	e8 e7 f0 ff ff       	callq  401080 <puts@plt>
  401f99:	48 8d 3d d4 14 00 00 	lea    0x14d4(%rip),%rdi        # 403474 <_IO_stdin_used+0x474>
  401fa0:	e8 db f0 ff ff       	callq  401080 <puts@plt>
  401fa5:	be 00 00 00 00       	mov    $0x0,%esi
  401faa:	bf 00 00 00 00       	mov    $0x0,%edi
  401faf:	e8 28 fe ff ff       	callq  401ddc <notify_server>
  401fb4:	bf 01 00 00 00       	mov    $0x1,%edi
  401fb9:	e8 32 f2 ff ff       	callq  4011f0 <exit@plt>

0000000000401fbe <seghandler>:
  401fbe:	48 83 ec 08          	sub    $0x8,%rsp
  401fc2:	83 3d 43 45 00 00 00 	cmpl   $0x0,0x4543(%rip)        # 40650c <is_checker>
  401fc9:	74 16                	je     401fe1 <seghandler+0x23>
  401fcb:	48 8d 3d b8 14 00 00 	lea    0x14b8(%rip),%rdi        # 40348a <_IO_stdin_used+0x48a>
  401fd2:	e8 a9 f0 ff ff       	callq  401080 <puts@plt>
  401fd7:	b8 00 00 00 00       	mov    $0x0,%eax
  401fdc:	e8 76 fd ff ff       	callq  401d57 <check_fail>
  401fe1:	48 8d 3d a8 15 00 00 	lea    0x15a8(%rip),%rdi        # 403590 <_IO_stdin_used+0x590>
  401fe8:	e8 93 f0 ff ff       	callq  401080 <puts@plt>
  401fed:	48 8d 3d 80 14 00 00 	lea    0x1480(%rip),%rdi        # 403474 <_IO_stdin_used+0x474>
  401ff4:	e8 87 f0 ff ff       	callq  401080 <puts@plt>
  401ff9:	be 00 00 00 00       	mov    $0x0,%esi
  401ffe:	bf 00 00 00 00       	mov    $0x0,%edi
  402003:	e8 d4 fd ff ff       	callq  401ddc <notify_server>
  402008:	bf 01 00 00 00       	mov    $0x1,%edi
  40200d:	e8 de f1 ff ff       	callq  4011f0 <exit@plt>

0000000000402012 <illegalhandler>:
  402012:	48 83 ec 08          	sub    $0x8,%rsp
  402016:	83 3d ef 44 00 00 00 	cmpl   $0x0,0x44ef(%rip)        # 40650c <is_checker>
  40201d:	74 16                	je     402035 <illegalhandler+0x23>
  40201f:	48 8d 3d 77 14 00 00 	lea    0x1477(%rip),%rdi        # 40349d <_IO_stdin_used+0x49d>
  402026:	e8 55 f0 ff ff       	callq  401080 <puts@plt>
  40202b:	b8 00 00 00 00       	mov    $0x0,%eax
  402030:	e8 22 fd ff ff       	callq  401d57 <check_fail>
  402035:	48 8d 3d 7c 15 00 00 	lea    0x157c(%rip),%rdi        # 4035b8 <_IO_stdin_used+0x5b8>
  40203c:	e8 3f f0 ff ff       	callq  401080 <puts@plt>
  402041:	48 8d 3d 2c 14 00 00 	lea    0x142c(%rip),%rdi        # 403474 <_IO_stdin_used+0x474>
  402048:	e8 33 f0 ff ff       	callq  401080 <puts@plt>
  40204d:	be 00 00 00 00       	mov    $0x0,%esi
  402052:	bf 00 00 00 00       	mov    $0x0,%edi
  402057:	e8 80 fd ff ff       	callq  401ddc <notify_server>
  40205c:	bf 01 00 00 00       	mov    $0x1,%edi
  402061:	e8 8a f1 ff ff       	callq  4011f0 <exit@plt>

0000000000402066 <sigalrmhandler>:
  402066:	48 83 ec 08          	sub    $0x8,%rsp
  40206a:	83 3d 9b 44 00 00 00 	cmpl   $0x0,0x449b(%rip)        # 40650c <is_checker>
  402071:	74 16                	je     402089 <sigalrmhandler+0x23>
  402073:	48 8d 3d 37 14 00 00 	lea    0x1437(%rip),%rdi        # 4034b1 <_IO_stdin_used+0x4b1>
  40207a:	e8 01 f0 ff ff       	callq  401080 <puts@plt>
  40207f:	b8 00 00 00 00       	mov    $0x0,%eax
  402084:	e8 ce fc ff ff       	callq  401d57 <check_fail>
  402089:	be 05 00 00 00       	mov    $0x5,%esi
  40208e:	48 8d 3d 53 15 00 00 	lea    0x1553(%rip),%rdi        # 4035e8 <_IO_stdin_used+0x5e8>
  402095:	b8 00 00 00 00       	mov    $0x0,%eax
  40209a:	e8 11 f0 ff ff       	callq  4010b0 <printf@plt>
  40209f:	be 00 00 00 00       	mov    $0x0,%esi
  4020a4:	bf 00 00 00 00       	mov    $0x0,%edi
  4020a9:	e8 2e fd ff ff       	callq  401ddc <notify_server>
  4020ae:	bf 01 00 00 00       	mov    $0x1,%edi
  4020b3:	e8 38 f1 ff ff       	callq  4011f0 <exit@plt>

00000000004020b8 <launch>:
  4020b8:	55                   	push   %rbp
  4020b9:	48 89 e5             	mov    %rsp,%rbp
  4020bc:	48 89 fa             	mov    %rdi,%rdx
  4020bf:	48 8d 47 17          	lea    0x17(%rdi),%rax
  4020c3:	48 83 e0 f0          	and    $0xfffffffffffffff0,%rax
  4020c7:	48 29 c4             	sub    %rax,%rsp
  4020ca:	48 8d 7c 24 0f       	lea    0xf(%rsp),%rdi
  4020cf:	48 83 e7 f0          	and    $0xfffffffffffffff0,%rdi
  4020d3:	be f4 00 00 00       	mov    $0xf4,%esi
  4020d8:	e8 e3 ef ff ff       	callq  4010c0 <memset@plt>
  4020dd:	48 8b 05 bc 43 00 00 	mov    0x43bc(%rip),%rax        # 4064a0 <stdin@@GLIBC_2.2.5>
  4020e4:	48 39 05 05 44 00 00 	cmp    %rax,0x4405(%rip)        # 4064f0 <infile>
  4020eb:	74 2b                	je     402118 <launch+0x60>
  4020ed:	c7 05 09 44 00 00 00 	movl   $0x0,0x4409(%rip)        # 406500 <vlevel>
  4020f4:	00 00 00 
  4020f7:	b8 00 00 00 00       	mov    $0x0,%eax
  4020fc:	e8 c1 fb ff ff       	callq  401cc2 <test>
  402101:	83 3d 04 44 00 00 00 	cmpl   $0x0,0x4404(%rip)        # 40650c <is_checker>
  402108:	75 21                	jne    40212b <launch+0x73>
  40210a:	48 8d 3d c0 13 00 00 	lea    0x13c0(%rip),%rdi        # 4034d1 <_IO_stdin_used+0x4d1>
  402111:	e8 6a ef ff ff       	callq  401080 <puts@plt>
  402116:	c9                   	leaveq 
  402117:	c3                   	retq   
  402118:	48 8d 3d 9a 13 00 00 	lea    0x139a(%rip),%rdi        # 4034b9 <_IO_stdin_used+0x4b9>
  40211f:	b8 00 00 00 00       	mov    $0x0,%eax
  402124:	e8 87 ef ff ff       	callq  4010b0 <printf@plt>
  402129:	eb c2                	jmp    4020ed <launch+0x35>
  40212b:	48 8d 3d 94 13 00 00 	lea    0x1394(%rip),%rdi        # 4034c6 <_IO_stdin_used+0x4c6>
  402132:	e8 49 ef ff ff       	callq  401080 <puts@plt>
  402137:	b8 00 00 00 00       	mov    $0x0,%eax
  40213c:	e8 16 fc ff ff       	callq  401d57 <check_fail>

0000000000402141 <stable_launch>:
  402141:	53                   	push   %rbx
  402142:	48 89 3d 9f 43 00 00 	mov    %rdi,0x439f(%rip)        # 4064e8 <global_offset>
  402149:	41 b9 00 00 00 00    	mov    $0x0,%r9d
  40214f:	41 b8 00 00 00 00    	mov    $0x0,%r8d
  402155:	b9 32 01 00 00       	mov    $0x132,%ecx
  40215a:	ba 07 00 00 00       	mov    $0x7,%edx
  40215f:	be 00 00 10 00       	mov    $0x100000,%esi
  402164:	bf 00 60 58 55       	mov    $0x55586000,%edi
  402169:	e8 32 ef ff ff       	callq  4010a0 <mmap@plt>
  40216e:	48 89 c3             	mov    %rax,%rbx
  402171:	48 3d 00 60 58 55    	cmp    $0x55586000,%rax
  402177:	75 43                	jne    4021bc <stable_launch+0x7b>
  402179:	48 8d 90 f8 ff 0f 00 	lea    0xffff8(%rax),%rdx
  402180:	48 89 15 a9 4f 00 00 	mov    %rdx,0x4fa9(%rip)        # 407130 <stack_top>
  402187:	48 89 e0             	mov    %rsp,%rax
  40218a:	48 89 d4             	mov    %rdx,%rsp
  40218d:	48 89 c2             	mov    %rax,%rdx
  402190:	48 89 15 49 43 00 00 	mov    %rdx,0x4349(%rip)        # 4064e0 <global_save_stack>
  402197:	48 8b 3d 4a 43 00 00 	mov    0x434a(%rip),%rdi        # 4064e8 <global_offset>
  40219e:	e8 15 ff ff ff       	callq  4020b8 <launch>
  4021a3:	48 8b 05 36 43 00 00 	mov    0x4336(%rip),%rax        # 4064e0 <global_save_stack>
  4021aa:	48 89 c4             	mov    %rax,%rsp
  4021ad:	be 00 00 10 00       	mov    $0x100000,%esi
  4021b2:	48 89 df             	mov    %rbx,%rdi
  4021b5:	e8 c6 ef ff ff       	callq  401180 <munmap@plt>
  4021ba:	5b                   	pop    %rbx
  4021bb:	c3                   	retq   
  4021bc:	be 00 00 10 00       	mov    $0x100000,%esi
  4021c1:	48 89 c7             	mov    %rax,%rdi
  4021c4:	e8 b7 ef ff ff       	callq  401180 <munmap@plt>
  4021c9:	ba 00 60 58 55       	mov    $0x55586000,%edx
  4021ce:	48 8d 35 4b 14 00 00 	lea    0x144b(%rip),%rsi        # 403620 <_IO_stdin_used+0x620>
  4021d5:	48 8b 3d e4 42 00 00 	mov    0x42e4(%rip),%rdi        # 4064c0 <stderr@@GLIBC_2.2.5>
  4021dc:	b8 00 00 00 00       	mov    $0x0,%eax
  4021e1:	e8 3a ef ff ff       	callq  401120 <fprintf@plt>
  4021e6:	bf 01 00 00 00       	mov    $0x1,%edi
  4021eb:	e8 00 f0 ff ff       	callq  4011f0 <exit@plt>

00000000004021f0 <rio_readinitb>:
  4021f0:	89 37                	mov    %esi,(%rdi)
  4021f2:	c7 47 04 00 00 00 00 	movl   $0x0,0x4(%rdi)
  4021f9:	48 8d 47 10          	lea    0x10(%rdi),%rax
  4021fd:	48 89 47 08          	mov    %rax,0x8(%rdi)
  402201:	c3                   	retq   

0000000000402202 <sigalrm_handler>:
  402202:	48 83 ec 08          	sub    $0x8,%rsp
  402206:	ba 00 00 00 00       	mov    $0x0,%edx
  40220b:	48 8d 35 4e 14 00 00 	lea    0x144e(%rip),%rsi        # 403660 <trans_char+0x10>
  402212:	48 8b 3d a7 42 00 00 	mov    0x42a7(%rip),%rdi        # 4064c0 <stderr@@GLIBC_2.2.5>
  402219:	b8 00 00 00 00       	mov    $0x0,%eax
  40221e:	e8 fd ee ff ff       	callq  401120 <fprintf@plt>
  402223:	bf 01 00 00 00       	mov    $0x1,%edi
  402228:	e8 c3 ef ff ff       	callq  4011f0 <exit@plt>

000000000040222d <urlencode>:
  40222d:	41 54                	push   %r12
  40222f:	55                   	push   %rbp
  402230:	53                   	push   %rbx
  402231:	48 83 ec 10          	sub    $0x10,%rsp
  402235:	48 89 fb             	mov    %rdi,%rbx
  402238:	48 89 f5             	mov    %rsi,%rbp
  40223b:	48 c7 c1 ff ff ff ff 	mov    $0xffffffffffffffff,%rcx
  402242:	b8 00 00 00 00       	mov    $0x0,%eax
  402247:	f2 ae                	repnz scas %es:(%rdi),%al
  402249:	48 89 ce             	mov    %rcx,%rsi
  40224c:	48 f7 d6             	not    %rsi
  40224f:	8d 46 ff             	lea    -0x1(%rsi),%eax
  402252:	eb 0e                	jmp    402262 <urlencode+0x35>
  402254:	88 55 00             	mov    %dl,0x0(%rbp)
  402257:	48 8d 6d 01          	lea    0x1(%rbp),%rbp
  40225b:	48 83 c3 01          	add    $0x1,%rbx
  40225f:	44 89 e0             	mov    %r12d,%eax
  402262:	44 8d 60 ff          	lea    -0x1(%rax),%r12d
  402266:	85 c0                	test   %eax,%eax
  402268:	0f 84 95 00 00 00    	je     402303 <urlencode+0xd6>
  40226e:	0f b6 13             	movzbl (%rbx),%edx
  402271:	80 fa 2a             	cmp    $0x2a,%dl
  402274:	0f 94 c1             	sete   %cl
  402277:	80 fa 2d             	cmp    $0x2d,%dl
  40227a:	0f 94 c0             	sete   %al
  40227d:	08 c1                	or     %al,%cl
  40227f:	75 d3                	jne    402254 <urlencode+0x27>
  402281:	80 fa 2e             	cmp    $0x2e,%dl
  402284:	74 ce                	je     402254 <urlencode+0x27>
  402286:	80 fa 5f             	cmp    $0x5f,%dl
  402289:	74 c9                	je     402254 <urlencode+0x27>
  40228b:	8d 42 d0             	lea    -0x30(%rdx),%eax
  40228e:	3c 09                	cmp    $0x9,%al
  402290:	76 c2                	jbe    402254 <urlencode+0x27>
  402292:	8d 42 bf             	lea    -0x41(%rdx),%eax
  402295:	3c 19                	cmp    $0x19,%al
  402297:	76 bb                	jbe    402254 <urlencode+0x27>
  402299:	8d 42 9f             	lea    -0x61(%rdx),%eax
  40229c:	3c 19                	cmp    $0x19,%al
  40229e:	76 b4                	jbe    402254 <urlencode+0x27>
  4022a0:	80 fa 20             	cmp    $0x20,%dl
  4022a3:	74 4c                	je     4022f1 <urlencode+0xc4>
  4022a5:	8d 42 e0             	lea    -0x20(%rdx),%eax
  4022a8:	3c 5f                	cmp    $0x5f,%al
  4022aa:	0f 96 c1             	setbe  %cl
  4022ad:	80 fa 09             	cmp    $0x9,%dl
  4022b0:	0f 94 c0             	sete   %al
  4022b3:	08 c1                	or     %al,%cl
  4022b5:	74 47                	je     4022fe <urlencode+0xd1>
  4022b7:	0f b6 d2             	movzbl %dl,%edx
  4022ba:	48 8d 7c 24 08       	lea    0x8(%rsp),%rdi
  4022bf:	48 8d 35 32 14 00 00 	lea    0x1432(%rip),%rsi        # 4036f8 <trans_char+0xa8>
  4022c6:	b8 00 00 00 00       	mov    $0x0,%eax
  4022cb:	e8 10 ef ff ff       	callq  4011e0 <sprintf@plt>
  4022d0:	0f b6 44 24 08       	movzbl 0x8(%rsp),%eax
  4022d5:	88 45 00             	mov    %al,0x0(%rbp)
  4022d8:	0f b6 44 24 09       	movzbl 0x9(%rsp),%eax
  4022dd:	88 45 01             	mov    %al,0x1(%rbp)
  4022e0:	0f b6 44 24 0a       	movzbl 0xa(%rsp),%eax
  4022e5:	88 45 02             	mov    %al,0x2(%rbp)
  4022e8:	48 8d 6d 03          	lea    0x3(%rbp),%rbp
  4022ec:	e9 6a ff ff ff       	jmpq   40225b <urlencode+0x2e>
  4022f1:	c6 45 00 2b          	movb   $0x2b,0x0(%rbp)
  4022f5:	48 8d 6d 01          	lea    0x1(%rbp),%rbp
  4022f9:	e9 5d ff ff ff       	jmpq   40225b <urlencode+0x2e>
  4022fe:	b8 ff ff ff ff       	mov    $0xffffffff,%eax
  402303:	48 83 c4 10          	add    $0x10,%rsp
  402307:	5b                   	pop    %rbx
  402308:	5d                   	pop    %rbp
  402309:	41 5c                	pop    %r12
  40230b:	c3                   	retq   

000000000040230c <rio_writen>:
  40230c:	41 55                	push   %r13
  40230e:	41 54                	push   %r12
  402310:	55                   	push   %rbp
  402311:	53                   	push   %rbx
  402312:	48 83 ec 08          	sub    $0x8,%rsp
  402316:	41 89 fc             	mov    %edi,%r12d
  402319:	48 89 f5             	mov    %rsi,%rbp
  40231c:	49 89 d5             	mov    %rdx,%r13
  40231f:	48 89 d3             	mov    %rdx,%rbx
  402322:	eb 06                	jmp    40232a <rio_writen+0x1e>
  402324:	48 29 c3             	sub    %rax,%rbx
  402327:	48 01 c5             	add    %rax,%rbp
  40232a:	48 85 db             	test   %rbx,%rbx
  40232d:	74 24                	je     402353 <rio_writen+0x47>
  40232f:	48 89 da             	mov    %rbx,%rdx
  402332:	48 89 ee             	mov    %rbp,%rsi
  402335:	44 89 e7             	mov    %r12d,%edi
  402338:	e8 53 ed ff ff       	callq  401090 <write@plt>
  40233d:	48 85 c0             	test   %rax,%rax
  402340:	7f e2                	jg     402324 <rio_writen+0x18>
  402342:	e8 f9 ec ff ff       	callq  401040 <__errno_location@plt>
  402347:	83 38 04             	cmpl   $0x4,(%rax)
  40234a:	75 15                	jne    402361 <rio_writen+0x55>
  40234c:	b8 00 00 00 00       	mov    $0x0,%eax
  402351:	eb d1                	jmp    402324 <rio_writen+0x18>
  402353:	4c 89 e8             	mov    %r13,%rax
  402356:	48 83 c4 08          	add    $0x8,%rsp
  40235a:	5b                   	pop    %rbx
  40235b:	5d                   	pop    %rbp
  40235c:	41 5c                	pop    %r12
  40235e:	41 5d                	pop    %r13
  402360:	c3                   	retq   
  402361:	48 c7 c0 ff ff ff ff 	mov    $0xffffffffffffffff,%rax
  402368:	eb ec                	jmp    402356 <rio_writen+0x4a>

000000000040236a <rio_read>:
  40236a:	41 55                	push   %r13
  40236c:	41 54                	push   %r12
  40236e:	55                   	push   %rbp
  40236f:	53                   	push   %rbx
  402370:	48 83 ec 08          	sub    $0x8,%rsp
  402374:	48 89 fb             	mov    %rdi,%rbx
  402377:	49 89 f5             	mov    %rsi,%r13
  40237a:	49 89 d4             	mov    %rdx,%r12
  40237d:	eb 0a                	jmp    402389 <rio_read+0x1f>
  40237f:	e8 bc ec ff ff       	callq  401040 <__errno_location@plt>
  402384:	83 38 04             	cmpl   $0x4,(%rax)
  402387:	75 5a                	jne    4023e3 <rio_read+0x79>
  402389:	8b 6b 04             	mov    0x4(%rbx),%ebp
  40238c:	85 ed                	test   %ebp,%ebp
  40238e:	7f 22                	jg     4023b2 <rio_read+0x48>
  402390:	48 8d 6b 10          	lea    0x10(%rbx),%rbp
  402394:	ba 00 20 00 00       	mov    $0x2000,%edx
  402399:	48 89 ee             	mov    %rbp,%rsi
  40239c:	8b 3b                	mov    (%rbx),%edi
  40239e:	e8 4d ed ff ff       	callq  4010f0 <read@plt>
  4023a3:	89 43 04             	mov    %eax,0x4(%rbx)
  4023a6:	85 c0                	test   %eax,%eax
  4023a8:	78 d5                	js     40237f <rio_read+0x15>
  4023aa:	74 40                	je     4023ec <rio_read+0x82>
  4023ac:	48 89 6b 08          	mov    %rbp,0x8(%rbx)
  4023b0:	eb d7                	jmp    402389 <rio_read+0x1f>
  4023b2:	89 e8                	mov    %ebp,%eax
  4023b4:	4c 39 e0             	cmp    %r12,%rax
  4023b7:	72 03                	jb     4023bc <rio_read+0x52>
  4023b9:	44 89 e5             	mov    %r12d,%ebp
  4023bc:	4c 63 e5             	movslq %ebp,%r12
  4023bf:	48 8b 73 08          	mov    0x8(%rbx),%rsi
  4023c3:	4c 89 e2             	mov    %r12,%rdx
  4023c6:	4c 89 ef             	mov    %r13,%rdi
  4023c9:	e8 72 ed ff ff       	callq  401140 <memcpy@plt>
  4023ce:	4c 01 63 08          	add    %r12,0x8(%rbx)
  4023d2:	29 6b 04             	sub    %ebp,0x4(%rbx)
  4023d5:	4c 89 e0             	mov    %r12,%rax
  4023d8:	48 83 c4 08          	add    $0x8,%rsp
  4023dc:	5b                   	pop    %rbx
  4023dd:	5d                   	pop    %rbp
  4023de:	41 5c                	pop    %r12
  4023e0:	41 5d                	pop    %r13
  4023e2:	c3                   	retq   
  4023e3:	48 c7 c0 ff ff ff ff 	mov    $0xffffffffffffffff,%rax
  4023ea:	eb ec                	jmp    4023d8 <rio_read+0x6e>
  4023ec:	b8 00 00 00 00       	mov    $0x0,%eax
  4023f1:	eb e5                	jmp    4023d8 <rio_read+0x6e>

00000000004023f3 <rio_readlineb>:
  4023f3:	41 55                	push   %r13
  4023f5:	41 54                	push   %r12
  4023f7:	55                   	push   %rbp
  4023f8:	53                   	push   %rbx
  4023f9:	48 83 ec 18          	sub    $0x18,%rsp
  4023fd:	49 89 fd             	mov    %rdi,%r13
  402400:	48 89 f5             	mov    %rsi,%rbp
  402403:	49 89 d4             	mov    %rdx,%r12
  402406:	bb 01 00 00 00       	mov    $0x1,%ebx
  40240b:	4c 39 e3             	cmp    %r12,%rbx
  40240e:	73 44                	jae    402454 <rio_readlineb+0x61>
  402410:	48 8d 74 24 0f       	lea    0xf(%rsp),%rsi
  402415:	ba 01 00 00 00       	mov    $0x1,%edx
  40241a:	4c 89 ef             	mov    %r13,%rdi
  40241d:	e8 48 ff ff ff       	callq  40236a <rio_read>
  402422:	83 f8 01             	cmp    $0x1,%eax
  402425:	75 19                	jne    402440 <rio_readlineb+0x4d>
  402427:	48 8d 55 01          	lea    0x1(%rbp),%rdx
  40242b:	0f b6 44 24 0f       	movzbl 0xf(%rsp),%eax
  402430:	88 45 00             	mov    %al,0x0(%rbp)
  402433:	3c 0a                	cmp    $0xa,%al
  402435:	74 1a                	je     402451 <rio_readlineb+0x5e>
  402437:	48 83 c3 01          	add    $0x1,%rbx
  40243b:	48 89 d5             	mov    %rdx,%rbp
  40243e:	eb cb                	jmp    40240b <rio_readlineb+0x18>
  402440:	85 c0                	test   %eax,%eax
  402442:	75 22                	jne    402466 <rio_readlineb+0x73>
  402444:	48 83 fb 01          	cmp    $0x1,%rbx
  402448:	75 0a                	jne    402454 <rio_readlineb+0x61>
  40244a:	b8 00 00 00 00       	mov    $0x0,%eax
  40244f:	eb 0a                	jmp    40245b <rio_readlineb+0x68>
  402451:	48 89 d5             	mov    %rdx,%rbp
  402454:	c6 45 00 00          	movb   $0x0,0x0(%rbp)
  402458:	48 89 d8             	mov    %rbx,%rax
  40245b:	48 83 c4 18          	add    $0x18,%rsp
  40245f:	5b                   	pop    %rbx
  402460:	5d                   	pop    %rbp
  402461:	41 5c                	pop    %r12
  402463:	41 5d                	pop    %r13
  402465:	c3                   	retq   
  402466:	48 c7 c0 ff ff ff ff 	mov    $0xffffffffffffffff,%rax
  40246d:	eb ec                	jmp    40245b <rio_readlineb+0x68>

000000000040246f <submitr>:
  40246f:	41 57                	push   %r15
  402471:	41 56                	push   %r14
  402473:	41 55                	push   %r13
  402475:	41 54                	push   %r12
  402477:	55                   	push   %rbp
  402478:	53                   	push   %rbx
  402479:	48 81 ec 58 a0 00 00 	sub    $0xa058,%rsp
  402480:	49 89 fd             	mov    %rdi,%r13
  402483:	89 74 24 14          	mov    %esi,0x14(%rsp)
  402487:	49 89 d7             	mov    %rdx,%r15
  40248a:	48 89 4c 24 08       	mov    %rcx,0x8(%rsp)
  40248f:	4c 89 44 24 18       	mov    %r8,0x18(%rsp)
  402494:	4d 89 ce             	mov    %r9,%r14
  402497:	48 8b ac 24 90 a0 00 	mov    0xa090(%rsp),%rbp
  40249e:	00 
  40249f:	c7 84 24 2c 20 00 00 	movl   $0x0,0x202c(%rsp)
  4024a6:	00 00 00 00 
  4024aa:	ba 00 00 00 00       	mov    $0x0,%edx
  4024af:	be 01 00 00 00       	mov    $0x1,%esi
  4024b4:	bf 02 00 00 00       	mov    $0x2,%edi
  4024b9:	e8 62 ed ff ff       	callq  401220 <socket@plt>
  4024be:	85 c0                	test   %eax,%eax
  4024c0:	0f 88 9a 02 00 00    	js     402760 <submitr+0x2f1>
  4024c6:	89 c3                	mov    %eax,%ebx
  4024c8:	4c 89 ef             	mov    %r13,%rdi
  4024cb:	e8 40 ec ff ff       	callq  401110 <gethostbyname@plt>
  4024d0:	48 85 c0             	test   %rax,%rax
  4024d3:	0f 84 d3 02 00 00    	je     4027ac <submitr+0x33d>
  4024d9:	4c 8d a4 24 40 a0 00 	lea    0xa040(%rsp),%r12
  4024e0:	00 
  4024e1:	48 c7 84 24 42 a0 00 	movq   $0x0,0xa042(%rsp)
  4024e8:	00 00 00 00 00 
  4024ed:	c7 84 24 4a a0 00 00 	movl   $0x0,0xa04a(%rsp)
  4024f4:	00 00 00 00 
  4024f8:	66 c7 84 24 4e a0 00 	movw   $0x0,0xa04e(%rsp)
  4024ff:	00 00 00 
  402502:	66 c7 84 24 40 a0 00 	movw   $0x2,0xa040(%rsp)
  402509:	00 02 00 
  40250c:	48 8b 48 18          	mov    0x18(%rax),%rcx
  402510:	48 63 50 14          	movslq 0x14(%rax),%rdx
  402514:	48 8d bc 24 44 a0 00 	lea    0xa044(%rsp),%rdi
  40251b:	00 
  40251c:	48 8b 31             	mov    (%rcx),%rsi
  40251f:	e8 6c ec ff ff       	callq  401190 <memmove@plt>
  402524:	0f b7 44 24 14       	movzwl 0x14(%rsp),%eax
  402529:	66 c1 c0 08          	rol    $0x8,%ax
  40252d:	66 89 84 24 42 a0 00 	mov    %ax,0xa042(%rsp)
  402534:	00 
  402535:	ba 10 00 00 00       	mov    $0x10,%edx
  40253a:	4c 89 e6             	mov    %r12,%rsi
  40253d:	89 df                	mov    %ebx,%edi
  40253f:	e8 bc ec ff ff       	callq  401200 <connect@plt>
  402544:	85 c0                	test   %eax,%eax
  402546:	0f 88 c8 02 00 00    	js     402814 <submitr+0x3a5>
  40254c:	48 c7 c6 ff ff ff ff 	mov    $0xffffffffffffffff,%rsi
  402553:	b8 00 00 00 00       	mov    $0x0,%eax
  402558:	48 89 f1             	mov    %rsi,%rcx
  40255b:	4c 89 f7             	mov    %r14,%rdi
  40255e:	f2 ae                	repnz scas %es:(%rdi),%al
  402560:	48 89 ca             	mov    %rcx,%rdx
  402563:	48 f7 d2             	not    %rdx
  402566:	48 89 f1             	mov    %rsi,%rcx
  402569:	4c 89 ff             	mov    %r15,%rdi
  40256c:	f2 ae                	repnz scas %es:(%rdi),%al
  40256e:	48 f7 d1             	not    %rcx
  402571:	49 89 c8             	mov    %rcx,%r8
  402574:	48 89 f1             	mov    %rsi,%rcx
  402577:	48 8b 7c 24 08       	mov    0x8(%rsp),%rdi
  40257c:	f2 ae                	repnz scas %es:(%rdi),%al
  40257e:	48 f7 d1             	not    %rcx
  402581:	4d 8d 44 08 fe       	lea    -0x2(%r8,%rcx,1),%r8
  402586:	48 89 f1             	mov    %rsi,%rcx
  402589:	48 8b 7c 24 18       	mov    0x18(%rsp),%rdi
  40258e:	f2 ae                	repnz scas %es:(%rdi),%al
  402590:	48 89 c8             	mov    %rcx,%rax
  402593:	48 f7 d0             	not    %rax
  402596:	49 8d 4c 00 ff       	lea    -0x1(%r8,%rax,1),%rcx
  40259b:	48 8d 44 52 fd       	lea    -0x3(%rdx,%rdx,2),%rax
  4025a0:	48 8d 84 01 80 00 00 	lea    0x80(%rcx,%rax,1),%rax
  4025a7:	00 
  4025a8:	48 3d 00 20 00 00    	cmp    $0x2000,%rax
  4025ae:	0f 87 ba 02 00 00    	ja     40286e <submitr+0x3ff>
  4025b4:	48 8d b4 24 30 40 00 	lea    0x4030(%rsp),%rsi
  4025bb:	00 
  4025bc:	b9 00 04 00 00       	mov    $0x400,%ecx
  4025c1:	b8 00 00 00 00       	mov    $0x0,%eax
  4025c6:	48 89 f7             	mov    %rsi,%rdi
  4025c9:	f3 48 ab             	rep stos %rax,%es:(%rdi)
  4025cc:	4c 89 f7             	mov    %r14,%rdi
  4025cf:	e8 59 fc ff ff       	callq  40222d <urlencode>
  4025d4:	85 c0                	test   %eax,%eax
  4025d6:	0f 88 05 03 00 00    	js     4028e1 <submitr+0x472>
  4025dc:	4c 8d a4 24 30 60 00 	lea    0x6030(%rsp),%r12
  4025e3:	00 
  4025e4:	4d 89 e9             	mov    %r13,%r9
  4025e7:	4c 8d 84 24 30 40 00 	lea    0x4030(%rsp),%r8
  4025ee:	00 
  4025ef:	4c 89 f9             	mov    %r15,%rcx
  4025f2:	48 8b 54 24 08       	mov    0x8(%rsp),%rdx
  4025f7:	48 8d 35 8a 10 00 00 	lea    0x108a(%rip),%rsi        # 403688 <trans_char+0x38>
  4025fe:	4c 89 e7             	mov    %r12,%rdi
  402601:	b8 00 00 00 00       	mov    $0x0,%eax
  402606:	e8 d5 eb ff ff       	callq  4011e0 <sprintf@plt>
  40260b:	48 c7 c1 ff ff ff ff 	mov    $0xffffffffffffffff,%rcx
  402612:	b8 00 00 00 00       	mov    $0x0,%eax
  402617:	4c 89 e7             	mov    %r12,%rdi
  40261a:	f2 ae                	repnz scas %es:(%rdi),%al
  40261c:	48 89 ca             	mov    %rcx,%rdx
  40261f:	48 f7 d2             	not    %rdx
  402622:	48 8d 52 ff          	lea    -0x1(%rdx),%rdx
  402626:	4c 89 e6             	mov    %r12,%rsi
  402629:	89 df                	mov    %ebx,%edi
  40262b:	e8 dc fc ff ff       	callq  40230c <rio_writen>
  402630:	48 85 c0             	test   %rax,%rax
  402633:	0f 88 33 03 00 00    	js     40296c <submitr+0x4fd>
  402639:	4c 8d a4 24 30 80 00 	lea    0x8030(%rsp),%r12
  402640:	00 
  402641:	89 de                	mov    %ebx,%esi
  402643:	4c 89 e7             	mov    %r12,%rdi
  402646:	e8 a5 fb ff ff       	callq  4021f0 <rio_readinitb>
  40264b:	48 8d b4 24 30 60 00 	lea    0x6030(%rsp),%rsi
  402652:	00 
  402653:	ba 00 20 00 00       	mov    $0x2000,%edx
  402658:	4c 89 e7             	mov    %r12,%rdi
  40265b:	e8 93 fd ff ff       	callq  4023f3 <rio_readlineb>
  402660:	48 85 c0             	test   %rax,%rax
  402663:	0f 8e 72 03 00 00    	jle    4029db <submitr+0x56c>
  402669:	48 8d 8c 24 2c 20 00 	lea    0x202c(%rsp),%rcx
  402670:	00 
  402671:	48 8d 94 24 30 20 00 	lea    0x2030(%rsp),%rdx
  402678:	00 
  402679:	48 8d bc 24 30 60 00 	lea    0x6030(%rsp),%rdi
  402680:	00 
  402681:	4c 8d 44 24 20       	lea    0x20(%rsp),%r8
  402686:	48 8d 35 72 10 00 00 	lea    0x1072(%rip),%rsi        # 4036ff <trans_char+0xaf>
  40268d:	b8 00 00 00 00       	mov    $0x0,%eax
  402692:	e8 d9 ea ff ff       	callq  401170 <__isoc99_sscanf@plt>
  402697:	48 8d b4 24 30 60 00 	lea    0x6030(%rsp),%rsi
  40269e:	00 
  40269f:	b9 03 00 00 00       	mov    $0x3,%ecx
  4026a4:	48 8d 3d 6b 10 00 00 	lea    0x106b(%rip),%rdi        # 403716 <trans_char+0xc6>
  4026ab:	f3 a6                	repz cmpsb %es:(%rdi),%ds:(%rsi)
  4026ad:	0f 97 c0             	seta   %al
  4026b0:	1c 00                	sbb    $0x0,%al
  4026b2:	84 c0                	test   %al,%al
  4026b4:	0f 84 9f 03 00 00    	je     402a59 <submitr+0x5ea>
  4026ba:	48 8d b4 24 30 60 00 	lea    0x6030(%rsp),%rsi
  4026c1:	00 
  4026c2:	48 8d bc 24 30 80 00 	lea    0x8030(%rsp),%rdi
  4026c9:	00 
  4026ca:	ba 00 20 00 00       	mov    $0x2000,%edx
  4026cf:	e8 1f fd ff ff       	callq  4023f3 <rio_readlineb>
  4026d4:	48 85 c0             	test   %rax,%rax
  4026d7:	7f be                	jg     402697 <submitr+0x228>
  4026d9:	48 b8 45 72 72 6f 72 	movabs $0x43203a726f727245,%rax
  4026e0:	3a 20 43 
  4026e3:	48 ba 6c 69 65 6e 74 	movabs $0x6e7520746e65696c,%rdx
  4026ea:	20 75 6e 
  4026ed:	48 89 45 00          	mov    %rax,0x0(%rbp)
  4026f1:	48 89 55 08          	mov    %rdx,0x8(%rbp)
  4026f5:	48 b8 61 62 6c 65 20 	movabs $0x206f7420656c6261,%rax
  4026fc:	74 6f 20 
  4026ff:	48 ba 72 65 61 64 20 	movabs $0x6165682064616572,%rdx
  402706:	68 65 61 
  402709:	48 89 45 10          	mov    %rax,0x10(%rbp)
  40270d:	48 89 55 18          	mov    %rdx,0x18(%rbp)
  402711:	48 b8 64 65 72 73 20 	movabs $0x6f72662073726564,%rax
  402718:	66 72 6f 
  40271b:	48 ba 6d 20 74 68 65 	movabs $0x657220656874206d,%rdx
  402722:	20 72 65 
  402725:	48 89 45 20          	mov    %rax,0x20(%rbp)
  402729:	48 89 55 28          	mov    %rdx,0x28(%rbp)
  40272d:	48 b8 73 75 6c 74 20 	movabs $0x72657320746c7573,%rax
  402734:	73 65 72 
  402737:	48 89 45 30          	mov    %rax,0x30(%rbp)
  40273b:	c7 45 38 76 65 72 00 	movl   $0x726576,0x38(%rbp)
  402742:	89 df                	mov    %ebx,%edi
  402744:	e8 97 e9 ff ff       	callq  4010e0 <close@plt>
  402749:	b8 ff ff ff ff       	mov    $0xffffffff,%eax
  40274e:	48 81 c4 58 a0 00 00 	add    $0xa058,%rsp
  402755:	5b                   	pop    %rbx
  402756:	5d                   	pop    %rbp
  402757:	41 5c                	pop    %r12
  402759:	41 5d                	pop    %r13
  40275b:	41 5e                	pop    %r14
  40275d:	41 5f                	pop    %r15
  40275f:	c3                   	retq   
  402760:	48 b8 45 72 72 6f 72 	movabs $0x43203a726f727245,%rax
  402767:	3a 20 43 
  40276a:	48 ba 6c 69 65 6e 74 	movabs $0x6e7520746e65696c,%rdx
  402771:	20 75 6e 
  402774:	48 89 45 00          	mov    %rax,0x0(%rbp)
  402778:	48 89 55 08          	mov    %rdx,0x8(%rbp)
  40277c:	48 b8 61 62 6c 65 20 	movabs $0x206f7420656c6261,%rax
  402783:	74 6f 20 
  402786:	48 ba 63 72 65 61 74 	movabs $0x7320657461657263,%rdx
  40278d:	65 20 73 
  402790:	48 89 45 10          	mov    %rax,0x10(%rbp)
  402794:	48 89 55 18          	mov    %rdx,0x18(%rbp)
  402798:	c7 45 20 6f 63 6b 65 	movl   $0x656b636f,0x20(%rbp)
  40279f:	66 c7 45 24 74 00    	movw   $0x74,0x24(%rbp)
  4027a5:	b8 ff ff ff ff       	mov    $0xffffffff,%eax
  4027aa:	eb a2                	jmp    40274e <submitr+0x2df>
  4027ac:	48 b8 45 72 72 6f 72 	movabs $0x44203a726f727245,%rax
  4027b3:	3a 20 44 
  4027b6:	48 ba 4e 53 20 69 73 	movabs $0x6e7520736920534e,%rdx
  4027bd:	20 75 6e 
  4027c0:	48 89 45 00          	mov    %rax,0x0(%rbp)
  4027c4:	48 89 55 08          	mov    %rdx,0x8(%rbp)
  4027c8:	48 b8 61 62 6c 65 20 	movabs $0x206f7420656c6261,%rax
  4027cf:	74 6f 20 
  4027d2:	48 ba 72 65 73 6f 6c 	movabs $0x2065766c6f736572,%rdx
  4027d9:	76 65 20 
  4027dc:	48 89 45 10          	mov    %rax,0x10(%rbp)
  4027e0:	48 89 55 18          	mov    %rdx,0x18(%rbp)
  4027e4:	48 b8 73 65 72 76 65 	movabs $0x6120726576726573,%rax
  4027eb:	72 20 61 
  4027ee:	48 89 45 20          	mov    %rax,0x20(%rbp)
  4027f2:	c7 45 28 64 64 72 65 	movl   $0x65726464,0x28(%rbp)
  4027f9:	66 c7 45 2c 73 73    	movw   $0x7373,0x2c(%rbp)
  4027ff:	c6 45 2e 00          	movb   $0x0,0x2e(%rbp)
  402803:	89 df                	mov    %ebx,%edi
  402805:	e8 d6 e8 ff ff       	callq  4010e0 <close@plt>
  40280a:	b8 ff ff ff ff       	mov    $0xffffffff,%eax
  40280f:	e9 3a ff ff ff       	jmpq   40274e <submitr+0x2df>
  402814:	48 b8 45 72 72 6f 72 	movabs $0x55203a726f727245,%rax
  40281b:	3a 20 55 
  40281e:	48 ba 6e 61 62 6c 65 	movabs $0x6f7420656c62616e,%rdx
  402825:	20 74 6f 
  402828:	48 89 45 00          	mov    %rax,0x0(%rbp)
  40282c:	48 89 55 08          	mov    %rdx,0x8(%rbp)
  402830:	48 b8 20 63 6f 6e 6e 	movabs $0x7463656e6e6f6320,%rax
  402837:	65 63 74 
  40283a:	48 ba 20 74 6f 20 74 	movabs $0x20656874206f7420,%rdx
  402841:	68 65 20 
  402844:	48 89 45 10          	mov    %rax,0x10(%rbp)
  402848:	48 89 55 18          	mov    %rdx,0x18(%rbp)
  40284c:	c7 45 20 73 65 72 76 	movl   $0x76726573,0x20(%rbp)
  402853:	66 c7 45 24 65 72    	movw   $0x7265,0x24(%rbp)
  402859:	c6 45 26 00          	movb   $0x0,0x26(%rbp)
  40285d:	89 df                	mov    %ebx,%edi
  40285f:	e8 7c e8 ff ff       	callq  4010e0 <close@plt>
  402864:	b8 ff ff ff ff       	mov    $0xffffffff,%eax
  402869:	e9 e0 fe ff ff       	jmpq   40274e <submitr+0x2df>
  40286e:	48 b8 45 72 72 6f 72 	movabs $0x52203a726f727245,%rax
  402875:	3a 20 52 
  402878:	48 ba 65 73 75 6c 74 	movabs $0x747320746c757365,%rdx
  40287f:	20 73 74 
  402882:	48 89 45 00          	mov    %rax,0x0(%rbp)
  402886:	48 89 55 08          	mov    %rdx,0x8(%rbp)
  40288a:	48 b8 72 69 6e 67 20 	movabs $0x6f6f7420676e6972,%rax
  402891:	74 6f 6f 
  402894:	48 ba 20 6c 61 72 67 	movabs $0x202e656772616c20,%rdx
  40289b:	65 2e 20 
  40289e:	48 89 45 10          	mov    %rax,0x10(%rbp)
  4028a2:	48 89 55 18          	mov    %rdx,0x18(%rbp)
  4028a6:	48 b8 49 6e 63 72 65 	movabs $0x6573616572636e49,%rax
  4028ad:	61 73 65 
  4028b0:	48 ba 20 53 55 42 4d 	movabs $0x5254494d42555320,%rdx
  4028b7:	49 54 52 
  4028ba:	48 89 45 20          	mov    %rax,0x20(%rbp)
  4028be:	48 89 55 28          	mov    %rdx,0x28(%rbp)
  4028c2:	48 b8 5f 4d 41 58 42 	movabs $0x46554258414d5f,%rax
  4028c9:	55 46 00 
  4028cc:	48 89 45 30          	mov    %rax,0x30(%rbp)
  4028d0:	89 df                	mov    %ebx,%edi
  4028d2:	e8 09 e8 ff ff       	callq  4010e0 <close@plt>
  4028d7:	b8 ff ff ff ff       	mov    $0xffffffff,%eax
  4028dc:	e9 6d fe ff ff       	jmpq   40274e <submitr+0x2df>
  4028e1:	48 b8 45 72 72 6f 72 	movabs $0x52203a726f727245,%rax
  4028e8:	3a 20 52 
  4028eb:	48 ba 65 73 75 6c 74 	movabs $0x747320746c757365,%rdx
  4028f2:	20 73 74 
  4028f5:	48 89 45 00          	mov    %rax,0x0(%rbp)
  4028f9:	48 89 55 08          	mov    %rdx,0x8(%rbp)
  4028fd:	48 b8 72 69 6e 67 20 	movabs $0x6e6f6320676e6972,%rax
  402904:	63 6f 6e 
  402907:	48 ba 74 61 69 6e 73 	movabs $0x6e6120736e696174,%rdx
  40290e:	20 61 6e 
  402911:	48 89 45 10          	mov    %rax,0x10(%rbp)
  402915:	48 89 55 18          	mov    %rdx,0x18(%rbp)
  402919:	48 b8 20 69 6c 6c 65 	movabs $0x6c6167656c6c6920,%rax
  402920:	67 61 6c 
  402923:	48 ba 20 6f 72 20 75 	movabs $0x72706e7520726f20,%rdx
  40292a:	6e 70 72 
  40292d:	48 89 45 20          	mov    %rax,0x20(%rbp)
  402931:	48 89 55 28          	mov    %rdx,0x28(%rbp)
  402935:	48 b8 69 6e 74 61 62 	movabs $0x20656c6261746e69,%rax
  40293c:	6c 65 20 
  40293f:	48 ba 63 68 61 72 61 	movabs $0x6574636172616863,%rdx
  402946:	63 74 65 
  402949:	48 89 45 30          	mov    %rax,0x30(%rbp)
  40294d:	48 89 55 38          	mov    %rdx,0x38(%rbp)
  402951:	66 c7 45 40 72 2e    	movw   $0x2e72,0x40(%rbp)
  402957:	c6 45 42 00          	movb   $0x0,0x42(%rbp)
  40295b:	89 df                	mov    %ebx,%edi
  40295d:	e8 7e e7 ff ff       	callq  4010e0 <close@plt>
  402962:	b8 ff ff ff ff       	mov    $0xffffffff,%eax
  402967:	e9 e2 fd ff ff       	jmpq   40274e <submitr+0x2df>
  40296c:	48 b8 45 72 72 6f 72 	movabs $0x43203a726f727245,%rax
  402973:	3a 20 43 
  402976:	48 ba 6c 69 65 6e 74 	movabs $0x6e7520746e65696c,%rdx
  40297d:	20 75 6e 
  402980:	48 89 45 00          	mov    %rax,0x0(%rbp)
  402984:	48 89 55 08          	mov    %rdx,0x8(%rbp)
  402988:	48 b8 61 62 6c 65 20 	movabs $0x206f7420656c6261,%rax
  40298f:	74 6f 20 
  402992:	48 ba 77 72 69 74 65 	movabs $0x6f74206574697277,%rdx
  402999:	20 74 6f 
  40299c:	48 89 45 10          	mov    %rax,0x10(%rbp)
  4029a0:	48 89 55 18          	mov    %rdx,0x18(%rbp)
  4029a4:	48 b8 20 74 68 65 20 	movabs $0x7365722065687420,%rax
  4029ab:	72 65 73 
  4029ae:	48 ba 75 6c 74 20 73 	movabs $0x7672657320746c75,%rdx
  4029b5:	65 72 76 
  4029b8:	48 89 45 20          	mov    %rax,0x20(%rbp)
  4029bc:	48 89 55 28          	mov    %rdx,0x28(%rbp)
  4029c0:	66 c7 45 30 65 72    	movw   $0x7265,0x30(%rbp)
  4029c6:	c6 45 32 00          	movb   $0x0,0x32(%rbp)
  4029ca:	89 df                	mov    %ebx,%edi
  4029cc:	e8 0f e7 ff ff       	callq  4010e0 <close@plt>
  4029d1:	b8 ff ff ff ff       	mov    $0xffffffff,%eax
  4029d6:	e9 73 fd ff ff       	jmpq   40274e <submitr+0x2df>
  4029db:	48 b8 45 72 72 6f 72 	movabs $0x43203a726f727245,%rax
  4029e2:	3a 20 43 
  4029e5:	48 ba 6c 69 65 6e 74 	movabs $0x6e7520746e65696c,%rdx
  4029ec:	20 75 6e 
  4029ef:	48 89 45 00          	mov    %rax,0x0(%rbp)
  4029f3:	48 89 55 08          	mov    %rdx,0x8(%rbp)
  4029f7:	48 b8 61 62 6c 65 20 	movabs $0x206f7420656c6261,%rax
  4029fe:	74 6f 20 
  402a01:	48 ba 72 65 61 64 20 	movabs $0x7269662064616572,%rdx
  402a08:	66 69 72 
  402a0b:	48 89 45 10          	mov    %rax,0x10(%rbp)
  402a0f:	48 89 55 18          	mov    %rdx,0x18(%rbp)
  402a13:	48 b8 73 74 20 68 65 	movabs $0x6564616568207473,%rax
  402a1a:	61 64 65 
  402a1d:	48 ba 72 20 66 72 6f 	movabs $0x72206d6f72662072,%rdx
  402a24:	6d 20 72 
  402a27:	48 89 45 20          	mov    %rax,0x20(%rbp)
  402a2b:	48 89 55 28          	mov    %rdx,0x28(%rbp)
  402a2f:	48 b8 65 73 75 6c 74 	movabs $0x657320746c757365,%rax
  402a36:	20 73 65 
  402a39:	48 89 45 30          	mov    %rax,0x30(%rbp)
  402a3d:	c7 45 38 72 76 65 72 	movl   $0x72657672,0x38(%rbp)
  402a44:	c6 45 3c 00          	movb   $0x0,0x3c(%rbp)
  402a48:	89 df                	mov    %ebx,%edi
  402a4a:	e8 91 e6 ff ff       	callq  4010e0 <close@plt>
  402a4f:	b8 ff ff ff ff       	mov    $0xffffffff,%eax
  402a54:	e9 f5 fc ff ff       	jmpq   40274e <submitr+0x2df>
  402a59:	48 8d b4 24 30 60 00 	lea    0x6030(%rsp),%rsi
  402a60:	00 
  402a61:	48 8d bc 24 30 80 00 	lea    0x8030(%rsp),%rdi
  402a68:	00 
  402a69:	ba 00 20 00 00       	mov    $0x2000,%edx
  402a6e:	e8 80 f9 ff ff       	callq  4023f3 <rio_readlineb>
  402a73:	48 85 c0             	test   %rax,%rax
  402a76:	0f 8e 97 00 00 00    	jle    402b13 <submitr+0x6a4>
  402a7c:	8b 94 24 2c 20 00 00 	mov    0x202c(%rsp),%edx
  402a83:	81 fa c8 00 00 00    	cmp    $0xc8,%edx
  402a89:	0f 85 08 01 00 00    	jne    402b97 <submitr+0x728>
  402a8f:	48 8d b4 24 30 60 00 	lea    0x6030(%rsp),%rsi
  402a96:	00 
  402a97:	48 89 ef             	mov    %rbp,%rdi
  402a9a:	e8 d1 e5 ff ff       	callq  401070 <strcpy@plt>
  402a9f:	89 df                	mov    %ebx,%edi
  402aa1:	e8 3a e6 ff ff       	callq  4010e0 <close@plt>
  402aa6:	b9 04 00 00 00       	mov    $0x4,%ecx
  402aab:	48 8d 3d 5e 0c 00 00 	lea    0xc5e(%rip),%rdi        # 403710 <trans_char+0xc0>
  402ab2:	48 89 ee             	mov    %rbp,%rsi
  402ab5:	f3 a6                	repz cmpsb %es:(%rdi),%ds:(%rsi)
  402ab7:	0f 97 c0             	seta   %al
  402aba:	1c 00                	sbb    $0x0,%al
  402abc:	0f be c0             	movsbl %al,%eax
  402abf:	85 c0                	test   %eax,%eax
  402ac1:	0f 84 87 fc ff ff    	je     40274e <submitr+0x2df>
  402ac7:	b9 05 00 00 00       	mov    $0x5,%ecx
  402acc:	48 8d 3d 41 0c 00 00 	lea    0xc41(%rip),%rdi        # 403714 <trans_char+0xc4>
  402ad3:	48 89 ee             	mov    %rbp,%rsi
  402ad6:	f3 a6                	repz cmpsb %es:(%rdi),%ds:(%rsi)
  402ad8:	0f 97 c0             	seta   %al
  402adb:	1c 00                	sbb    $0x0,%al
  402add:	0f be c0             	movsbl %al,%eax
  402ae0:	85 c0                	test   %eax,%eax
  402ae2:	0f 84 66 fc ff ff    	je     40274e <submitr+0x2df>
  402ae8:	b9 03 00 00 00       	mov    $0x3,%ecx
  402aed:	48 8d 3d 25 0c 00 00 	lea    0xc25(%rip),%rdi        # 403719 <trans_char+0xc9>
  402af4:	48 89 ee             	mov    %rbp,%rsi
  402af7:	f3 a6                	repz cmpsb %es:(%rdi),%ds:(%rsi)
  402af9:	0f 97 c0             	seta   %al
  402afc:	1c 00                	sbb    $0x0,%al
  402afe:	0f be c0             	movsbl %al,%eax
  402b01:	85 c0                	test   %eax,%eax
  402b03:	0f 84 45 fc ff ff    	je     40274e <submitr+0x2df>
  402b09:	b8 ff ff ff ff       	mov    $0xffffffff,%eax
  402b0e:	e9 3b fc ff ff       	jmpq   40274e <submitr+0x2df>
  402b13:	48 b8 45 72 72 6f 72 	movabs $0x43203a726f727245,%rax
  402b1a:	3a 20 43 
  402b1d:	48 ba 6c 69 65 6e 74 	movabs $0x6e7520746e65696c,%rdx
  402b24:	20 75 6e 
  402b27:	48 89 45 00          	mov    %rax,0x0(%rbp)
  402b2b:	48 89 55 08          	mov    %rdx,0x8(%rbp)
  402b2f:	48 b8 61 62 6c 65 20 	movabs $0x206f7420656c6261,%rax
  402b36:	74 6f 20 
  402b39:	48 ba 72 65 61 64 20 	movabs $0x6174732064616572,%rdx
  402b40:	73 74 61 
  402b43:	48 89 45 10          	mov    %rax,0x10(%rbp)
  402b47:	48 89 55 18          	mov    %rdx,0x18(%rbp)
  402b4b:	48 b8 74 75 73 20 6d 	movabs $0x7373656d20737574,%rax
  402b52:	65 73 73 
  402b55:	48 ba 61 67 65 20 66 	movabs $0x6d6f726620656761,%rdx
  402b5c:	72 6f 6d 
  402b5f:	48 89 45 20          	mov    %rax,0x20(%rbp)
  402b63:	48 89 55 28          	mov    %rdx,0x28(%rbp)
  402b67:	48 b8 20 72 65 73 75 	movabs $0x20746c7573657220,%rax
  402b6e:	6c 74 20 
  402b71:	48 89 45 30          	mov    %rax,0x30(%rbp)
  402b75:	c7 45 38 73 65 72 76 	movl   $0x76726573,0x38(%rbp)
  402b7c:	66 c7 45 3c 65 72    	movw   $0x7265,0x3c(%rbp)
  402b82:	c6 45 3e 00          	movb   $0x0,0x3e(%rbp)
  402b86:	89 df                	mov    %ebx,%edi
  402b88:	e8 53 e5 ff ff       	callq  4010e0 <close@plt>
  402b8d:	b8 ff ff ff ff       	mov    $0xffffffff,%eax
  402b92:	e9 b7 fb ff ff       	jmpq   40274e <submitr+0x2df>
  402b97:	48 8d 4c 24 20       	lea    0x20(%rsp),%rcx
  402b9c:	48 8d 35 25 0b 00 00 	lea    0xb25(%rip),%rsi        # 4036c8 <trans_char+0x78>
  402ba3:	48 89 ef             	mov    %rbp,%rdi
  402ba6:	b8 00 00 00 00       	mov    $0x0,%eax
  402bab:	e8 30 e6 ff ff       	callq  4011e0 <sprintf@plt>
  402bb0:	89 df                	mov    %ebx,%edi
  402bb2:	e8 29 e5 ff ff       	callq  4010e0 <close@plt>
  402bb7:	b8 ff ff ff ff       	mov    $0xffffffff,%eax
  402bbc:	e9 8d fb ff ff       	jmpq   40274e <submitr+0x2df>

0000000000402bc1 <init_timeout>:
  402bc1:	85 ff                	test   %edi,%edi
  402bc3:	74 26                	je     402beb <init_timeout+0x2a>
  402bc5:	53                   	push   %rbx
  402bc6:	89 fb                	mov    %edi,%ebx
  402bc8:	78 1a                	js     402be4 <init_timeout+0x23>
  402bca:	48 8d 35 31 f6 ff ff 	lea    -0x9cf(%rip),%rsi        # 402202 <sigalrm_handler>
  402bd1:	bf 0e 00 00 00       	mov    $0xe,%edi
  402bd6:	e8 25 e5 ff ff       	callq  401100 <signal@plt>
  402bdb:	89 df                	mov    %ebx,%edi
  402bdd:	e8 ee e4 ff ff       	callq  4010d0 <alarm@plt>
  402be2:	5b                   	pop    %rbx
  402be3:	c3                   	retq   
  402be4:	bb 00 00 00 00       	mov    $0x0,%ebx
  402be9:	eb df                	jmp    402bca <init_timeout+0x9>
  402beb:	c3                   	retq   

0000000000402bec <init_driver>:
  402bec:	41 54                	push   %r12
  402bee:	55                   	push   %rbp
  402bef:	53                   	push   %rbx
  402bf0:	48 83 ec 10          	sub    $0x10,%rsp
  402bf4:	49 89 fc             	mov    %rdi,%r12
  402bf7:	be 01 00 00 00       	mov    $0x1,%esi
  402bfc:	bf 0d 00 00 00       	mov    $0xd,%edi
  402c01:	e8 fa e4 ff ff       	callq  401100 <signal@plt>
  402c06:	be 01 00 00 00       	mov    $0x1,%esi
  402c0b:	bf 1d 00 00 00       	mov    $0x1d,%edi
  402c10:	e8 eb e4 ff ff       	callq  401100 <signal@plt>
  402c15:	be 01 00 00 00       	mov    $0x1,%esi
  402c1a:	bf 1d 00 00 00       	mov    $0x1d,%edi
  402c1f:	e8 dc e4 ff ff       	callq  401100 <signal@plt>
  402c24:	ba 00 00 00 00       	mov    $0x0,%edx
  402c29:	be 01 00 00 00       	mov    $0x1,%esi
  402c2e:	bf 02 00 00 00       	mov    $0x2,%edi
  402c33:	e8 e8 e5 ff ff       	callq  401220 <socket@plt>
  402c38:	85 c0                	test   %eax,%eax
  402c3a:	0f 88 8a 00 00 00    	js     402cca <init_driver+0xde>
  402c40:	89 c3                	mov    %eax,%ebx
  402c42:	48 8d 3d d3 0a 00 00 	lea    0xad3(%rip),%rdi        # 40371c <trans_char+0xcc>
  402c49:	e8 c2 e4 ff ff       	callq  401110 <gethostbyname@plt>
  402c4e:	48 85 c0             	test   %rax,%rax
  402c51:	0f 84 c6 00 00 00    	je     402d1d <init_driver+0x131>
  402c57:	48 89 e5             	mov    %rsp,%rbp
  402c5a:	48 c7 44 24 02 00 00 	movq   $0x0,0x2(%rsp)
  402c61:	00 00 
  402c63:	c7 45 0a 00 00 00 00 	movl   $0x0,0xa(%rbp)
  402c6a:	66 c7 45 0e 00 00    	movw   $0x0,0xe(%rbp)
  402c70:	66 c7 04 24 02 00    	movw   $0x2,(%rsp)
  402c76:	48 8b 48 18          	mov    0x18(%rax),%rcx
  402c7a:	48 63 50 14          	movslq 0x14(%rax),%rdx
  402c7e:	48 8d 7d 04          	lea    0x4(%rbp),%rdi
  402c82:	48 8b 31             	mov    (%rcx),%rsi
  402c85:	e8 06 e5 ff ff       	callq  401190 <memmove@plt>
  402c8a:	66 c7 44 24 02 3c 9a 	movw   $0x9a3c,0x2(%rsp)
  402c91:	ba 10 00 00 00       	mov    $0x10,%edx
  402c96:	48 89 ee             	mov    %rbp,%rsi
  402c99:	89 df                	mov    %ebx,%edi
  402c9b:	e8 60 e5 ff ff       	callq  401200 <connect@plt>
  402ca0:	85 c0                	test   %eax,%eax
  402ca2:	0f 88 e7 00 00 00    	js     402d8f <init_driver+0x1a3>
  402ca8:	89 df                	mov    %ebx,%edi
  402caa:	e8 31 e4 ff ff       	callq  4010e0 <close@plt>
  402caf:	66 41 c7 04 24 4f 4b 	movw   $0x4b4f,(%r12)
  402cb6:	41 c6 44 24 02 00    	movb   $0x0,0x2(%r12)
  402cbc:	b8 00 00 00 00       	mov    $0x0,%eax
  402cc1:	48 83 c4 10          	add    $0x10,%rsp
  402cc5:	5b                   	pop    %rbx
  402cc6:	5d                   	pop    %rbp
  402cc7:	41 5c                	pop    %r12
  402cc9:	c3                   	retq   
  402cca:	48 b8 45 72 72 6f 72 	movabs $0x43203a726f727245,%rax
  402cd1:	3a 20 43 
  402cd4:	48 ba 6c 69 65 6e 74 	movabs $0x6e7520746e65696c,%rdx
  402cdb:	20 75 6e 
  402cde:	49 89 04 24          	mov    %rax,(%r12)
  402ce2:	49 89 54 24 08       	mov    %rdx,0x8(%r12)
  402ce7:	48 b8 61 62 6c 65 20 	movabs $0x206f7420656c6261,%rax
  402cee:	74 6f 20 
  402cf1:	48 ba 63 72 65 61 74 	movabs $0x7320657461657263,%rdx
  402cf8:	65 20 73 
  402cfb:	49 89 44 24 10       	mov    %rax,0x10(%r12)
  402d00:	49 89 54 24 18       	mov    %rdx,0x18(%r12)
  402d05:	41 c7 44 24 20 6f 63 	movl   $0x656b636f,0x20(%r12)
  402d0c:	6b 65 
  402d0e:	66 41 c7 44 24 24 74 	movw   $0x74,0x24(%r12)
  402d15:	00 
  402d16:	b8 ff ff ff ff       	mov    $0xffffffff,%eax
  402d1b:	eb a4                	jmp    402cc1 <init_driver+0xd5>
  402d1d:	48 b8 45 72 72 6f 72 	movabs $0x44203a726f727245,%rax
  402d24:	3a 20 44 
  402d27:	48 ba 4e 53 20 69 73 	movabs $0x6e7520736920534e,%rdx
  402d2e:	20 75 6e 
  402d31:	49 89 04 24          	mov    %rax,(%r12)
  402d35:	49 89 54 24 08       	mov    %rdx,0x8(%r12)
  402d3a:	48 b8 61 62 6c 65 20 	movabs $0x206f7420656c6261,%rax
  402d41:	74 6f 20 
  402d44:	48 ba 72 65 73 6f 6c 	movabs $0x2065766c6f736572,%rdx
  402d4b:	76 65 20 
  402d4e:	49 89 44 24 10       	mov    %rax,0x10(%r12)
  402d53:	49 89 54 24 18       	mov    %rdx,0x18(%r12)
  402d58:	48 b8 73 65 72 76 65 	movabs $0x6120726576726573,%rax
  402d5f:	72 20 61 
  402d62:	49 89 44 24 20       	mov    %rax,0x20(%r12)
  402d67:	41 c7 44 24 28 64 64 	movl   $0x65726464,0x28(%r12)
  402d6e:	72 65 
  402d70:	66 41 c7 44 24 2c 73 	movw   $0x7373,0x2c(%r12)
  402d77:	73 
  402d78:	41 c6 44 24 2e 00    	movb   $0x0,0x2e(%r12)
  402d7e:	89 df                	mov    %ebx,%edi
  402d80:	e8 5b e3 ff ff       	callq  4010e0 <close@plt>
  402d85:	b8 ff ff ff ff       	mov    $0xffffffff,%eax
  402d8a:	e9 32 ff ff ff       	jmpq   402cc1 <init_driver+0xd5>
  402d8f:	48 b8 45 72 72 6f 72 	movabs $0x55203a726f727245,%rax
  402d96:	3a 20 55 
  402d99:	48 ba 6e 61 62 6c 65 	movabs $0x6f7420656c62616e,%rdx
  402da0:	20 74 6f 
  402da3:	49 89 04 24          	mov    %rax,(%r12)
  402da7:	49 89 54 24 08       	mov    %rdx,0x8(%r12)
  402dac:	48 b8 20 63 6f 6e 6e 	movabs $0x7463656e6e6f6320,%rax
  402db3:	65 63 74 
  402db6:	48 ba 20 74 6f 20 73 	movabs $0x76726573206f7420,%rdx
  402dbd:	65 72 76 
  402dc0:	49 89 44 24 10       	mov    %rax,0x10(%r12)
  402dc5:	49 89 54 24 18       	mov    %rdx,0x18(%r12)
  402dca:	66 41 c7 44 24 20 65 	movw   $0x7265,0x20(%r12)
  402dd1:	72 
  402dd2:	41 c6 44 24 22 00    	movb   $0x0,0x22(%r12)
  402dd8:	89 df                	mov    %ebx,%edi
  402dda:	e8 01 e3 ff ff       	callq  4010e0 <close@plt>
  402ddf:	b8 ff ff ff ff       	mov    $0xffffffff,%eax
  402de4:	e9 d8 fe ff ff       	jmpq   402cc1 <init_driver+0xd5>

0000000000402de9 <driver_post>:
  402de9:	53                   	push   %rbx
  402dea:	4c 89 cb             	mov    %r9,%rbx
  402ded:	45 85 c0             	test   %r8d,%r8d
  402df0:	75 18                	jne    402e0a <driver_post+0x21>
  402df2:	48 85 ff             	test   %rdi,%rdi
  402df5:	74 05                	je     402dfc <driver_post+0x13>
  402df7:	80 3f 00             	cmpb   $0x0,(%rdi)
  402dfa:	75 32                	jne    402e2e <driver_post+0x45>
  402dfc:	66 c7 03 4f 4b       	movw   $0x4b4f,(%rbx)
  402e01:	c6 43 02 00          	movb   $0x0,0x2(%rbx)
  402e05:	44 89 c0             	mov    %r8d,%eax
  402e08:	5b                   	pop    %rbx
  402e09:	c3                   	retq   
  402e0a:	48 89 ce             	mov    %rcx,%rsi
  402e0d:	48 8d 3d 20 09 00 00 	lea    0x920(%rip),%rdi        # 403734 <trans_char+0xe4>
  402e14:	b8 00 00 00 00       	mov    $0x0,%eax
  402e19:	e8 92 e2 ff ff       	callq  4010b0 <printf@plt>
  402e1e:	66 c7 03 4f 4b       	movw   $0x4b4f,(%rbx)
  402e23:	c6 43 02 00          	movb   $0x0,0x2(%rbx)
  402e27:	b8 00 00 00 00       	mov    $0x0,%eax
  402e2c:	eb da                	jmp    402e08 <driver_post+0x1f>
  402e2e:	48 83 ec 08          	sub    $0x8,%rsp
  402e32:	41 51                	push   %r9
  402e34:	49 89 c9             	mov    %rcx,%r9
  402e37:	49 89 d0             	mov    %rdx,%r8
  402e3a:	48 89 f9             	mov    %rdi,%rcx
  402e3d:	48 89 f2             	mov    %rsi,%rdx
  402e40:	be 9a 3c 00 00       	mov    $0x3c9a,%esi
  402e45:	48 8d 3d d0 08 00 00 	lea    0x8d0(%rip),%rdi        # 40371c <trans_char+0xcc>
  402e4c:	e8 1e f6 ff ff       	callq  40246f <submitr>
  402e51:	48 83 c4 10          	add    $0x10,%rsp
  402e55:	eb b1                	jmp    402e08 <driver_post+0x1f>

0000000000402e57 <check>:
  402e57:	89 f8                	mov    %edi,%eax
  402e59:	c1 e8 1c             	shr    $0x1c,%eax
  402e5c:	74 1d                	je     402e7b <check+0x24>
  402e5e:	b9 00 00 00 00       	mov    $0x0,%ecx
  402e63:	83 f9 1f             	cmp    $0x1f,%ecx
  402e66:	7f 0d                	jg     402e75 <check+0x1e>
  402e68:	89 f8                	mov    %edi,%eax
  402e6a:	d3 e8                	shr    %cl,%eax
  402e6c:	3c 0a                	cmp    $0xa,%al
  402e6e:	74 11                	je     402e81 <check+0x2a>
  402e70:	83 c1 08             	add    $0x8,%ecx
  402e73:	eb ee                	jmp    402e63 <check+0xc>
  402e75:	b8 01 00 00 00       	mov    $0x1,%eax
  402e7a:	c3                   	retq   
  402e7b:	b8 00 00 00 00       	mov    $0x0,%eax
  402e80:	c3                   	retq   
  402e81:	b8 00 00 00 00       	mov    $0x0,%eax
  402e86:	c3                   	retq   

0000000000402e87 <gencookie>:
  402e87:	53                   	push   %rbx
  402e88:	83 c7 01             	add    $0x1,%edi
  402e8b:	e8 c0 e1 ff ff       	callq  401050 <srandom@plt>
  402e90:	e8 cb e2 ff ff       	callq  401160 <random@plt>
  402e95:	89 c3                	mov    %eax,%ebx
  402e97:	89 c7                	mov    %eax,%edi
  402e99:	e8 b9 ff ff ff       	callq  402e57 <check>
  402e9e:	85 c0                	test   %eax,%eax
  402ea0:	74 ee                	je     402e90 <gencookie+0x9>
  402ea2:	89 d8                	mov    %ebx,%eax
  402ea4:	5b                   	pop    %rbx
  402ea5:	c3                   	retq   
  402ea6:	66 2e 0f 1f 84 00 00 	nopw   %cs:0x0(%rax,%rax,1)
  402ead:	00 00 00 

0000000000402eb0 <__libc_csu_init>:
  402eb0:	41 57                	push   %r15
  402eb2:	49 89 d7             	mov    %rdx,%r15
  402eb5:	41 56                	push   %r14
  402eb7:	49 89 f6             	mov    %rsi,%r14
  402eba:	41 55                	push   %r13
  402ebc:	41 89 fd             	mov    %edi,%r13d
  402ebf:	41 54                	push   %r12
  402ec1:	4c 8d 25 48 2f 00 00 	lea    0x2f48(%rip),%r12        # 405e10 <__frame_dummy_init_array_entry>
  402ec8:	55                   	push   %rbp
  402ec9:	48 8d 2d 48 2f 00 00 	lea    0x2f48(%rip),%rbp        # 405e18 <__do_global_dtors_aux_fini_array_entry>
  402ed0:	53                   	push   %rbx
  402ed1:	4c 29 e5             	sub    %r12,%rbp
  402ed4:	48 83 ec 08          	sub    $0x8,%rsp
  402ed8:	e8 23 e1 ff ff       	callq  401000 <_init>
  402edd:	48 c1 fd 03          	sar    $0x3,%rbp
  402ee1:	74 1b                	je     402efe <__libc_csu_init+0x4e>
  402ee3:	31 db                	xor    %ebx,%ebx
  402ee5:	0f 1f 00             	nopl   (%rax)
  402ee8:	4c 89 fa             	mov    %r15,%rdx
  402eeb:	4c 89 f6             	mov    %r14,%rsi
  402eee:	44 89 ef             	mov    %r13d,%edi
  402ef1:	41 ff 14 dc          	callq  *(%r12,%rbx,8)
  402ef5:	48 83 c3 01          	add    $0x1,%rbx
  402ef9:	48 39 dd             	cmp    %rbx,%rbp
  402efc:	75 ea                	jne    402ee8 <__libc_csu_init+0x38>
  402efe:	48 83 c4 08          	add    $0x8,%rsp
  402f02:	5b                   	pop    %rbx
  402f03:	5d                   	pop    %rbp
  402f04:	41 5c                	pop    %r12
  402f06:	41 5d                	pop    %r13
  402f08:	41 5e                	pop    %r14
  402f0a:	41 5f                	pop    %r15
  402f0c:	c3                   	retq   
  402f0d:	0f 1f 00             	nopl   (%rax)

0000000000402f10 <__libc_csu_fini>:
  402f10:	c3                   	retq   

Disassembly of section .fini:

0000000000402f14 <_fini>:
  402f14:	48 83 ec 08          	sub    $0x8,%rsp
  402f18:	48 83 c4 08          	add    $0x8,%rsp
  402f1c:	c3                   	retq   
