	.file	"puzzle.c"
	.text
	.globl	puzzle
	.type	puzzle, @function
puzzle:
.LFB0:
	.cfi_startproc
	endbr64
	pushq	%rbp
	.cfi_def_cfa_offset 16
	.cfi_offset 6, -16
	movq	%rsi, %rbp
	pushq	%rbx
	.cfi_def_cfa_offset 24
	.cfi_offset 3, -24
	movq	%rdi, %rbx
	subq	$24, %rsp
	.cfi_def_cfa_offset 48
	movq	%fs:40, %rax
	movq	%rax, 8(%rsp)
	xorl	%eax, %eax
	testq	%rdi, %rdi
	jle	.L2
	movq	%rsp, %rsi
	leaq	(%rdi,%rdi), %rdi
	call	puzzle
	addq	(%rsp), %rax
	addq	%rax, %rbx
.L2:
	movq	%rbx, 0(%rbp)
	movq	8(%rsp), %rdx
	xorq	%fs:40, %rdx
	je	.L3
	call	__stack_chk_fail@PLT
.L3:
	addq	$24, %rsp
	.cfi_def_cfa_offset 24
	popq	%rbx
	.cfi_def_cfa_offset 16
	popq	%rbp
	.cfi_def_cfa_offset 8
	ret
	.cfi_endproc
.LFE0:
	.size	puzzle, .-puzzle
	.ident	"GCC: (Ubuntu 9.3.0-17ubuntu1~20.04) 9.3.0"
	.section	.note.GNU-stack,"",@progbits
	.section	.note.gnu.property,"a"
	.align 8
	.long	 1f - 0f
	.long	 4f - 1f
	.long	 5
0:
	.string	 "GNU"
1:
	.align 8
	.long	 0xc0000002
	.long	 3f - 2f
2:
	.long	 0x3
3:
	.align 8
4:
